gplink-1.4.3 #1198 (Mar 10 2016)
Copyright (c) 1998-2016 gputils project
Listing File Generated: 8-27-2016  21:05:20
 
 
Address  Value    Disassembly              Source
-------  -----    -----------              ------
                                           ;--------------------------------------------------------
                                           ; File Created by SDCC : free open source ANSI-C Compiler
                                           ; Version 3.5.5 #9516 (MINGW64)
                                           ;--------------------------------------------------------
                                           ; PIC16 port for the Microchip 16-bit core micros
                                           ;--------------------------------------------------------
                                           	list	p=18f4550
                                           	radix	dec
                                           
                                           
                                           ;--------------------------------------------------------
                                           ; public variables in this module
                                           ;--------------------------------------------------------
                                           	global	__currline
                                           	global	__initialized
                                           	global	__displaymode
                                           	global	__rw_pin
                                           	global	__cpu_clock_
                                           	global	_ep_bdt
                                           	global	_TXBuffer
                                           	global	_RXbuffer
                                           	global	_usbrx
                                           	global	_usbwp
                                           	global	_usbrp
                                           	global	_ep2_num_bytes_to_send
                                           	global	_ep2_source_data
                                           	global	__rs_pin
                                           	global	__enable_pin
                                           	global	__data_pins
                                           	global	__displayfunction
                                           	global	__displaycontrol
                                           	global	__numlines
                                           	global	_receivedbyte
                                           	global	_buffer
                                           	global	_usb_init
                                           	global	_usbavailable
                                           	global	_epapin_init
                                           	global	_prepare_ep2_in
                                           	global	_usbsend
                                           	global	_epap_in
                                           	global	_usbread
                                           	global	_usbreceive
                                           	global	_epap_out
                                           	global	_epapout_init
                                           	global	_usb_interrupt
                                           	global	_usbputs
                                           	global	_usbgets
                                           	global	_BULK_write
                                           	global	_BULK_read
                                           	global	_BULK_available
                                           	global	_pinmode
                                           	global	_System_readFlashMemory
                                           	global	_System_getCpuFrequency
                                           	global	_Delayms
                                           	global	_Delayus
                                           	global	_digitalwrite
                                           	global	_lcd_pulseEnable
                                           	global	_lcd_write4bits
                                           	global	_lcd_write8bits
                                           	global	_lcd_send
                                           	global	_lcd_write
                                           	global	_lcd_command
                                           	global	_lcd_setCursor
                                           	global	_lcd_print
                                           	global	_lcd_clear
                                           	global	_lcd_noDisplay
                                           	global	_lcd_display
                                           	global	_lcd_blink
                                           	global	_lcd_begin
                                           	global	_lcd_init
                                           	global	_lcd_pins
                                           	global	_IO_init
                                           	global	_IO_digital
                                           	global	_setup
                                           	global	_loop
                                           	global	_pinguino_main
                                           	global	_high_priority_isr
                                           	global	_low_priority_isr
                                           	global	_mask
                                           	global	_port
                                           
                                           ;--------------------------------------------------------
                                           ; extern variables in this module
                                           ;--------------------------------------------------------
                                           	extern	__gptrput1
                                           	extern	__gptrget1
                                           	extern	_SPPCFGbits
                                           	extern	_SPPEPSbits
                                           	extern	_SPPCONbits
                                           	extern	_UFRMLbits
                                           	extern	_UFRMHbits
                                           	extern	_UIRbits
                                           	extern	_UIEbits
                                           	extern	_UEIRbits
                                           	extern	_UEIEbits
                                           	extern	_USTATbits
                                           	extern	_UCONbits
                                           	extern	_UADDRbits
                                           	extern	_UCFGbits
                                           	extern	_UEP0bits
                                           	extern	_UEP1bits
                                           	extern	_UEP2bits
                                           	extern	_UEP3bits
                                           	extern	_UEP4bits
                                           	extern	_UEP5bits
                                           	extern	_UEP6bits
                                           	extern	_UEP7bits
                                           	extern	_UEP8bits
                                           	extern	_UEP9bits
                                           	extern	_UEP10bits
                                           	extern	_UEP11bits
                                           	extern	_UEP12bits
                                           	extern	_UEP13bits
                                           	extern	_UEP14bits
                                           	extern	_UEP15bits
                                           	extern	_PORTAbits
                                           	extern	_PORTBbits
                                           	extern	_PORTCbits
                                           	extern	_PORTDbits
                                           	extern	_PORTEbits
                                           	extern	_LATAbits
                                           	extern	_LATBbits
                                           	extern	_LATCbits
                                           	extern	_LATDbits
                                           	extern	_LATEbits
                                           	extern	_DDRAbits
                                           	extern	_TRISAbits
                                           	extern	_DDRBbits
                                           	extern	_TRISBbits
                                           	extern	_DDRCbits
                                           	extern	_TRISCbits
                                           	extern	_DDRDbits
                                           	extern	_TRISDbits
                                           	extern	_DDREbits
                                           	extern	_TRISEbits
                                           	extern	_OSCTUNEbits
                                           	extern	_PIE1bits
                                           	extern	_PIR1bits
                                           	extern	_IPR1bits
                                           	extern	_PIE2bits
                                           	extern	_PIR2bits
                                           	extern	_IPR2bits
                                           	extern	_EECON1bits
                                           	extern	_RCSTAbits
                                           	extern	_TXSTAbits
                                           	extern	_T3CONbits
                                           	extern	_CMCONbits
                                           	extern	_CVRCONbits
                                           	extern	_CCP1ASbits
                                           	extern	_ECCP1ASbits
                                           	extern	_CCP1DELbits
                                           	extern	_ECCP1DELbits
                                           	extern	_BAUDCONbits
                                           	extern	_BAUDCTLbits
                                           	extern	_CCP2CONbits
                                           	extern	_CCP1CONbits
                                           	extern	_ECCP1CONbits
                                           	extern	_ADCON2bits
                                           	extern	_ADCON1bits
                                           	extern	_ADCON0bits
                                           	extern	_SSPCON2bits
                                           	extern	_SSPCON1bits
                                           	extern	_SSPSTATbits
                                           	extern	_T2CONbits
                                           	extern	_T1CONbits
                                           	extern	_RCONbits
                                           	extern	_WDTCONbits
                                           	extern	_HLVDCONbits
                                           	extern	_LVDCONbits
                                           	extern	_OSCCONbits
                                           	extern	_T0CONbits
                                           	extern	_STATUSbits
                                           	extern	_INTCON3bits
                                           	extern	_INTCON2bits
                                           	extern	_INTCONbits
                                           	extern	_STKPTRbits
                                           	extern	_SPPDATA
                                           	extern	_SPPCFG
                                           	extern	_SPPEPS
                                           	extern	_SPPCON
                                           	extern	_UFRM
                                           	extern	_UFRML
                                           	extern	_UFRMH
                                           	extern	_UIR
                                           	extern	_UIE
                                           	extern	_UEIR
                                           	extern	_UEIE
                                           	extern	_USTAT
                                           	extern	_UCON
                                           	extern	_UADDR
                                           	extern	_UCFG
                                           	extern	_UEP0
                                           	extern	_UEP1
                                           	extern	_UEP2
                                           	extern	_UEP3
                                           	extern	_UEP4
                                           	extern	_UEP5
                                           	extern	_UEP6
                                           	extern	_UEP7
                                           	extern	_UEP8
                                           	extern	_UEP9
                                           	extern	_UEP10
                                           	extern	_UEP11
                                           	extern	_UEP12
                                           	extern	_UEP13
                                           	extern	_UEP14
                                           	extern	_UEP15
                                           	extern	_PORTA
                                           	extern	_PORTB
                                           	extern	_PORTC
                                           	extern	_PORTD
                                           	extern	_PORTE
                                           	extern	_LATA
                                           	extern	_LATB
                                           	extern	_LATC
                                           	extern	_LATD
                                           	extern	_LATE
                                           	extern	_DDRA
                                           	extern	_TRISA
                                           	extern	_DDRB
                                           	extern	_TRISB
                                           	extern	_DDRC
                                           	extern	_TRISC
                                           	extern	_DDRD
                                           	extern	_TRISD
                                           	extern	_DDRE
                                           	extern	_TRISE
                                           	extern	_OSCTUNE
                                           	extern	_PIE1
                                           	extern	_PIR1
                                           	extern	_IPR1
                                           	extern	_PIE2
                                           	extern	_PIR2
                                           	extern	_IPR2
                                           	extern	_EECON1
                                           	extern	_EECON2
                                           	extern	_EEDATA
                                           	extern	_EEADR
                                           	extern	_RCSTA
                                           	extern	_TXSTA
                                           	extern	_TXREG
                                           	extern	_RCREG
                                           	extern	_SPBRG
                                           	extern	_SPBRGH
                                           	extern	_T3CON
                                           	extern	_TMR3
                                           	extern	_TMR3L
                                           	extern	_TMR3H
                                           	extern	_CMCON
                                           	extern	_CVRCON
                                           	extern	_CCP1AS
                                           	extern	_ECCP1AS
                                           	extern	_CCP1DEL
                                           	extern	_ECCP1DEL
                                           	extern	_BAUDCON
                                           	extern	_BAUDCTL
                                           	extern	_CCP2CON
                                           	extern	_CCPR2
                                           	extern	_CCPR2L
                                           	extern	_CCPR2H
                                           	extern	_CCP1CON
                                           	extern	_ECCP1CON
                                           	extern	_CCPR1
                                           	extern	_CCPR1L
                                           	extern	_CCPR1H
                                           	extern	_ADCON2
                                           	extern	_ADCON1
                                           	extern	_ADCON0
                                           	extern	_ADRES
                                           	extern	_ADRESL
                                           	extern	_ADRESH
                                           	extern	_SSPCON2
                                           	extern	_SSPCON1
                                           	extern	_SSPSTAT
                                           	extern	_SSPADD
                                           	extern	_SSPBUF
                                           	extern	_T2CON
                                           	extern	_PR2
                                           	extern	_TMR2
                                           	extern	_T1CON
                                           	extern	_TMR1
                                           	extern	_TMR1L
                                           	extern	_TMR1H
                                           	extern	_RCON
                                           	extern	_WDTCON
                                           	extern	_HLVDCON
                                           	extern	_LVDCON
                                           	extern	_OSCCON
                                           	extern	_T0CON
                                           	extern	_TMR0
                                           	extern	_TMR0L
                                           	extern	_TMR0H
                                           	extern	_STATUS
                                           	extern	_FSR2L
                                           	extern	_FSR2H
                                           	extern	_PLUSW2
                                           	extern	_PREINC2
                                           	extern	_POSTDEC2
                                           	extern	_POSTINC2
                                           	extern	_INDF2
                                           	extern	_BSR
                                           	extern	_FSR1L
                                           	extern	_FSR1H
                                           	extern	_PLUSW1
                                           	extern	_PREINC1
                                           	extern	_POSTDEC1
                                           	extern	_POSTINC1
                                           	extern	_INDF1
                                           	extern	_WREG
                                           	extern	_FSR0L
                                           	extern	_FSR0H
                                           	extern	_PLUSW0
                                           	extern	_PREINC0
                                           	extern	_POSTDEC0
                                           	extern	_POSTINC0
                                           	extern	_INDF0
                                           	extern	_INTCON3
                                           	extern	_INTCON2
                                           	extern	_INTCON
                                           	extern	_PROD
                                           	extern	_PRODL
                                           	extern	_PRODH
                                           	extern	_TABLAT
                                           	extern	_TBLPTR
                                           	extern	_TBLPTRL
                                           	extern	_TBLPTRH
                                           	extern	_TBLPTRU
                                           	extern	_PC
                                           	extern	_PCL
                                           	extern	_PCLATH
                                           	extern	_PCLATU
                                           	extern	_STKPTR
                                           	extern	_TOS
                                           	extern	_TOSL
                                           	extern	_TOSH
                                           	extern	_TOSU
                                           	extern	_dispatch_usb_event
                                           	extern	_fill_in_buffer
                                           	extern	__divslong
                                           	extern	__divulong
                                           	extern	__mulint
                                           	extern	_delay100tcy
                                           
                                           ;--------------------------------------------------------
                                           ;	Equates to used internal registers
                                           ;--------------------------------------------------------
                                           STATUS	equ	0xfd8
                                           PCL	equ	0xff9
                                           PCLATH	equ	0xffa
                                           PCLATU	equ	0xffb
                                           WREG	equ	0xfe8
                                           BSR	equ	0xfe0
                                           TBLPTRL	equ	0xff6
                                           TBLPTRH	equ	0xff7
                                           TBLPTRU	equ	0xff8
                                           TABLAT	equ	0xff5
                                           FSR0L	equ	0xfe9
                                           FSR0H	equ	0xfea
                                           FSR1L	equ	0xfe1
                                           FSR2L	equ	0xfd9
                                           INDF0	equ	0xfef
                                           POSTINC1	equ	0xfe6
                                           POSTDEC1	equ	0xfe5
                                           PREINC1	equ	0xfe4
                                           PLUSW2	equ	0xfdb
                                           PRODL	equ	0xff3
                                           PRODH	equ	0xff4
                                           
                                           
                                           	idata
                                           __rs_pin	db	0x08
                                           __rw_pin	db	0xff
                                           __enable_pin	db	0x09
                                           
                                           
                                           ; Internal registers
                                           .registers	udata_ovr	0x0000
                                           r0x00	res	1
                                           r0x01	res	1
                                           r0x02	res	1
                                           r0x03	res	1
                                           r0x04	res	1
                                           r0x05	res	1
                                           r0x06	res	1
                                           r0x07	res	1
                                           r0x08	res	1
                                           r0x09	res	1
                                           r0x0a	res	1
                                           r0x0b	res	1
                                           r0x0c	res	1
                                           r0x0d	res	1
                                           
                                           
                                           usb_buf	udata
                                           _TXBuffer	res	64
                                           _RXbuffer	res	64
                                           
                                           udata_main_0	udata
                                           _last_send_was_null	res	1
                                           
                                           udata_main_1	udata
                                           __cpu_clock_	res	4
                                           
                                           udata_main_2	udata
                                           __displaymode	res	1
                                           
                                           udata_main_3	udata
                                           __initialized	res	1
                                           
                                           udata_main_4	udata
                                           __currline	res	1
                                           
                                           udata_main_5	udata
                                           _usbwp	res	1
                                           
                                           udata_main_6	udata
                                           _usbrp	res	1
                                           
                                           udata_main_7	udata
                                           _ep2_num_bytes_to_send	res	2
                                           
                                           udata_main_8	udata
                                           _ep2_source_data	res	3
                                           
                                           udata_main_9	udata
                                           _usbrx	res	64
                                           
                                           udata_main_10	udata
                                           __data_pins	res	8
                                           
                                           udata_main_11	udata
                                           __displayfunction	res	1
                                           
                                           udata_main_12	udata
                                           _lcd_setCursor_row_offsets_1_104	res	4
                                           
                                           udata_main_13	udata
                                           __numlines	res	1
                                           
                                           udata_main_14	udata
                                           __displaycontrol	res	1
                                           
                                           udata_main_15	udata
                                           _receivedbyte	res	1
                                           
                                           udata_main_16	udata
                                           _buffer	res	64
                                           
                                           
                                           ustat_main_00	udata	0X0400
                                           _ep_bdt        	res	128
                                           
                                           ;--------------------------------------------------------
                                           ; global & static initialisations
                                           ;--------------------------------------------------------
                                           ; ; Starting pCode block
                                           S_main__high_priority_isr	code	0X002020
                                           _high_priority_isr:
                                           ;	.line	438; F:\OneDrive\API_PINGUINO_18F4550\API\user\main.c	void high_priority_isr(void) __interrupt 1
002020   cfd8     movff   0xfd8, 0xfe5     	MOVFF	STATUS, POSTDEC1
002022   ffe5
002024   cfe0     movff   0xfe0, 0xfe5     	MOVFF	BSR, POSTDEC1
002026   ffe5
002028   6ee5     movwf   0xe5, 0x0        	MOVWF	POSTDEC1
00202a   cff3     movff   0xff3, 0xfe5     	MOVFF	PRODL, POSTDEC1
00202c   ffe5
00202e   cff4     movff   0xff4, 0xfe5     	MOVFF	PRODH, POSTDEC1
002030   ffe5
002032   cfe9     movff   0xfe9, 0xfe5     	MOVFF	FSR0L, POSTDEC1
002034   ffe5
002036   cfea     movff   0xfea, 0xfe5     	MOVFF	FSR0H, POSTDEC1
002038   ffe5
00203a   cffa     movff   0xffa, 0xfe5     	MOVFF	PCLATH, POSTDEC1
00203c   ffe5
00203e   cffb     movff   0xffb, 0xfe5     	MOVFF	PCLATU, POSTDEC1
002040   ffe5
002042   cfd9     movff   0xfd9, 0xfe5     	MOVFF	FSR2L, POSTDEC1
002044   ffe5
002046   cfe1     movff   0xfe1, 0xfd9     	MOVFF	FSR1L, FSR2L
002048   ffd9
00204a   cff6     movff   0xff6, 0xfe5     	MOVFF	_TBLPTRL, POSTDEC1
00204c   ffe5
00204e   cff7     movff   0xff7, 0xfe5     	MOVFF	_TBLPTRH, POSTDEC1
002050   ffe5
002052   cff8     movff   0xff8, 0xfe5     	MOVFF	_TBLPTRU, POSTDEC1
002054   ffe5
002056   cff5     movff   0xff5, 0xfe5     	MOVFF	_TABLAT, POSTDEC1
002058   ffe5
                                           	
                                           ;	.line	459; F:\OneDrive\API_PINGUINO_18F4550\API\user\main.c	usb_interrupt();
00205a   ec69     call    0x003cd2, 0x0call    0x003cd2, 0x0 	CALL	_usb_interrupt
00205c   f01e
00205e   cfe4     movff   0xfe4, 0xff5     	MOVFF	PREINC1, _TABLAT
002060   fff5
002062   cfe4     movff   0xfe4, 0xff8     	MOVFF	PREINC1, _TBLPTRU
002064   fff8
002066   cfe4     movff   0xfe4, 0xff7     	MOVFF	PREINC1, _TBLPTRH
002068   fff7
00206a   cfe4     movff   0xfe4, 0xff6     	MOVFF	PREINC1, _TBLPTRL
00206c   fff6
                                           	
00206e   cfe4     movff   0xfe4, 0xfd9     	MOVFF	PREINC1, FSR2L
002070   ffd9
002072   cfe4     movff   0xfe4, 0xffb     	MOVFF	PREINC1, PCLATU
002074   fffb
002076   cfe4     movff   0xfe4, 0xffa     	MOVFF	PREINC1, PCLATH
002078   fffa
00207a   cfe4     movff   0xfe4, 0xfea     	MOVFF	PREINC1, FSR0H
00207c   ffea
00207e   cfe4     movff   0xfe4, 0xfe9     	MOVFF	PREINC1, FSR0L
002080   ffe9
002082   cfe4     movff   0xfe4, 0xff4     	MOVFF	PREINC1, PRODH
002084   fff4
002086   cfe4     movff   0xfe4, 0xff3     	MOVFF	PREINC1, PRODL
002088   fff3
00208a   50e4     movf    0xe4, 0x0, 0x0   	MOVF	PREINC1, W
00208c   cfe4     movff   0xfe4, 0xfe0     	MOVFF	PREINC1, BSR
00208e   ffe0
002090   cfe4     movff   0xfe4, 0xfd8     	MOVFF	PREINC1, STATUS
002092   ffd8
002094   0010     retfie  0x0              	RETFIE	
                                           
                                           ; ; Starting pCode block for absolute section
                                           ; ;-----------------------------------------
                                           S_main_ivec_0x1_high_priority_isr	code	0X000008
                                           ivec_0x1_high_priority_isr:
000008   ef10     goto    0x002020         	GOTO	_high_priority_isr
00000a   f010
                                           
                                           ; ; Starting pCode block
                                           S_main__low_priority_isr	code	0X004000
                                           _low_priority_isr:
                                           ;	.line	535; F:\OneDrive\API_PINGUINO_18F4550\API\user\main.c	void low_priority_isr(void) __interrupt 2
004000   cfd8     movff   0xfd8, 0xfe5     	MOVFF	STATUS, POSTDEC1
004002   ffe5
004004   cfe0     movff   0xfe0, 0xfe5     	MOVFF	BSR, POSTDEC1
004006   ffe5
004008   6ee5     movwf   0xe5, 0x0        	MOVWF	POSTDEC1
00400a   cff3     movff   0xff3, 0xfe5     	MOVFF	PRODL, POSTDEC1
00400c   ffe5
00400e   cff4     movff   0xff4, 0xfe5     	MOVFF	PRODH, POSTDEC1
004010   ffe5
004012   cfe9     movff   0xfe9, 0xfe5     	MOVFF	FSR0L, POSTDEC1
004014   ffe5
004016   cfea     movff   0xfea, 0xfe5     	MOVFF	FSR0H, POSTDEC1
004018   ffe5
00401a   cffa     movff   0xffa, 0xfe5     	MOVFF	PCLATH, POSTDEC1
00401c   ffe5
00401e   cffb     movff   0xffb, 0xfe5     	MOVFF	PCLATU, POSTDEC1
004020   ffe5
004022   cfd9     movff   0xfd9, 0xfe5     	MOVFF	FSR2L, POSTDEC1
004024   ffe5
004026   cfe1     movff   0xfe1, 0xfd9     	MOVFF	FSR1L, FSR2L
004028   ffd9
00402a   cff6     movff   0xff6, 0xfe5     	MOVFF	_TBLPTRL, POSTDEC1
00402c   ffe5
00402e   cff7     movff   0xff7, 0xfe5     	MOVFF	_TBLPTRH, POSTDEC1
004030   ffe5
004032   cff8     movff   0xff8, 0xfe5     	MOVFF	_TBLPTRU, POSTDEC1
004034   ffe5
004036   cff5     movff   0xff5, 0xfe5     	MOVFF	_TABLAT, POSTDEC1
004038   ffe5
                                           	
00403a   cfe4     movff   0xfe4, 0xff5     	MOVFF	PREINC1, _TABLAT
00403c   fff5
00403e   cfe4     movff   0xfe4, 0xff8     	MOVFF	PREINC1, _TBLPTRU
004040   fff8
004042   cfe4     movff   0xfe4, 0xff7     	MOVFF	PREINC1, _TBLPTRH
004044   fff7
004046   cfe4     movff   0xfe4, 0xff6     	MOVFF	PREINC1, _TBLPTRL
004048   fff6
                                           	
00404a   cfe4     movff   0xfe4, 0xfd9     	MOVFF	PREINC1, FSR2L
00404c   ffd9
00404e   cfe4     movff   0xfe4, 0xffb     	MOVFF	PREINC1, PCLATU
004050   fffb
004052   cfe4     movff   0xfe4, 0xffa     	MOVFF	PREINC1, PCLATH
004054   fffa
004056   cfe4     movff   0xfe4, 0xfea     	MOVFF	PREINC1, FSR0H
004058   ffea
00405a   cfe4     movff   0xfe4, 0xfe9     	MOVFF	PREINC1, FSR0L
00405c   ffe9
00405e   cfe4     movff   0xfe4, 0xff4     	MOVFF	PREINC1, PRODH
004060   fff4
004062   cfe4     movff   0xfe4, 0xff3     	MOVFF	PREINC1, PRODL
004064   fff3
004066   50e4     movf    0xe4, 0x0, 0x0   	MOVF	PREINC1, W
004068   cfe4     movff   0xfe4, 0xfe0     	MOVFF	PREINC1, BSR
00406a   ffe0
00406c   cfe4     movff   0xfe4, 0xfd8     	MOVFF	PREINC1, STATUS
00406e   ffd8
004070   0010     retfie  0x0              	RETFIE	
                                           
                                           ; ; Starting pCode block for absolute section
                                           ; ;-----------------------------------------
                                           S_main_ivec_0x2_low_priority_isr	code	0X000018
                                           ivec_0x2_low_priority_isr:
000018   ef00     goto    0x004000         	GOTO	_low_priority_isr
00001a   f020
                                           
                                           ; I code from now on!
                                           ; ; Starting pCode block
                                           S_main__pinguino_main	code
                                           _pinguino_main:
                                           ;	.line	149; F:\OneDrive\API_PINGUINO_18F4550\API\user\main.c	if (RCONbits.NOT_POR == 0)
003b42   b2d0     btfsc   0xd0, 0x1, 0x0   	BTFSC	_RCONbits, 1
003b44   d002     bra     0x003b4a         	BRA	_00673_DS_
                                           ;	.line	151; F:\OneDrive\API_PINGUINO_18F4550\API\user\main.c	RCON |= 0b10010011;         // set all reset flag
003b46   0e93     movlw   0x93             	MOVLW	0x93
003b48   12d0     iorwf   0xd0, 0x1, 0x0   	IORWF	_RCON, F
                                           _00673_DS_:
                                           ;	.line	197; F:\OneDrive\API_PINGUINO_18F4550\API\user\main.c	if (OSCCONbits.SCS > 0x01)
003b4a   50d3     movf    0xd3, 0x0, 0x0   	MOVF	_OSCCONbits, W
003b4c   0b03     andlw   0x03             	ANDLW	0x03
                                           ; #	MOVWF	r0x00
                                           ; #	MOVF	r0x00, W
003b4e   0f80     addlw   0x80             	ADDLW	0x80
003b50   0f7e     addlw   0x7e             	ADDLW	0x7e
003b52   e302     bnc     0x003b58         	BNC	_00678_DS_
                                           _00674_DS_:
                                           ;	.line	199; F:\OneDrive\API_PINGUINO_18F4550\API\user\main.c	while (!OSCCONbits.IOFS);
003b54   a4d3     btfss   0xd3, 0x2, 0x0   	BTFSS	_OSCCONbits, 2
003b56   d7fe     bra     0x003b54         	BRA	_00674_DS_
                                           _00678_DS_:
                                           ;	.line	243; F:\OneDrive\API_PINGUINO_18F4550\API\user\main.c	IO_init();
003b58   ece3     call    0x003bc6, 0x0call    0x003bc6, 0x0 	CALL	_IO_init
003b5a   f01d
                                           ;	.line	244; F:\OneDrive\API_PINGUINO_18F4550\API\user\main.c	IO_digital();
003b5c   ec85     call    0x003d0a, 0x0call    0x003d0a, 0x0 	CALL	_IO_digital
003b5e   f01e
                                           ;	.line	260; F:\OneDrive\API_PINGUINO_18F4550\API\user\main.c	usb_init();
003b60   ec7f     call    0x003cfe, 0x0call    0x003cfe, 0x0 	CALL	_usb_init
003b62   f01e
                                           ;	.line	300; F:\OneDrive\API_PINGUINO_18F4550\API\user\main.c	setup();
003b64   ec48     call    0x003490, 0x0call    0x003490, 0x0 	CALL	_setup
003b66   f01a
                                           _00680_DS_:
                                           ;	.line	327; F:\OneDrive\API_PINGUINO_18F4550\API\user\main.c	loop();
003b68   ece2     call    0x0037c4, 0x0call    0x0037c4, 0x0 	CALL	_loop
003b6a   f01b
003b6c   d7fd     bra     0x003b68         	BRA	_00680_DS_
003b6e   0012     return  0x0              	RETURN	
                                           
                                           ; ; Starting pCode block
                                           S_main__loop	code
                                           _loop:
                                           ;	.line	19; F:\OneDrive\API_PINGUINO_18F4550\API\user\/user.c	void loop()
0037c4   c000     movff   0x000, 0xfe5     	MOVFF	r0x00, POSTDEC1
0037c6   ffe5
0037c8   c001     movff   0x001, 0xfe5     	MOVFF	r0x01, POSTDEC1
0037ca   ffe5
0037cc   0102     movlb   0x2              	BANKSEL	_receivedbyte
                                           ;	.line	21; F:\OneDrive\API_PINGUINO_18F4550\API\user\/user.c	receivedbyte=0;
0037ce   6ba2     clrf    0xa2, 0x1        	CLRF	_receivedbyte, B
                                           ;	.line	22; F:\OneDrive\API_PINGUINO_18F4550\API\user\/user.c	if(BULK_available())
0037d0   ec0d     call    0x00201a, 0x0call    0x00201a, 0x0 	CALL	_BULK_available
0037d2   f010
0037d4   6e00     movwf   0x00, 0x0        	MOVWF	r0x00
0037d6   5000     movf    0x00, 0x0, 0x0   	MOVF	r0x00, W
0037d8   e025     bz      0x003824         	BZ	_00667_DS_
                                           ;	.line	24; F:\OneDrive\API_PINGUINO_18F4550\API\user\/user.c	receivedbyte =BULK_read(buffer);
0037da   0e80     movlw   0x80             	MOVLW	0x80
                                           ; #	MOVWF	r0x02
                                           ; #	MOVF	r0x02, W
0037dc   6ee5     movwf   0xe5, 0x0        	MOVWF	POSTDEC1
0037de   0e02     movlw   0x02             	MOVLW	HIGH(_buffer)
0037e0   6ee5     movwf   0xe5, 0x0        	MOVWF	POSTDEC1
0037e2   0e40     movlw   0x40             	MOVLW	LOW(_buffer)
0037e4   6ee5     movwf   0xe5, 0x0        	MOVWF	POSTDEC1
0037e6   ec34     call    0x003a68, 0x0call    0x003a68, 0x0 	CALL	_BULK_read
0037e8   f01d
0037ea   0102     movlb   0x2              	BANKSEL	_receivedbyte
0037ec   6fa2     movwf   0xa2, 0x1        	MOVWF	_receivedbyte, B
0037ee   0e03     movlw   0x03             	MOVLW	0x03
0037f0   26e1     addwf   0xe1, 0x1, 0x0   	ADDWF	FSR1L, F
                                           ;	.line	25; F:\OneDrive\API_PINGUINO_18F4550\API\user\/user.c	buffer[receivedbyte] = 0;
0037f2   0e40     movlw   0x40             	MOVLW	LOW(_buffer)
                                           ; removed redundant BANKSEL
0037f4   25a2     addwf   0xa2, 0x0, 0x1   	ADDWF	_receivedbyte, W, B
0037f6   6e00     movwf   0x00, 0x0        	MOVWF	r0x00
0037f8   6a01     clrf    0x01, 0x0        	CLRF	r0x01
0037fa   0e02     movlw   0x02             	MOVLW	HIGH(_buffer)
0037fc   2201     addwfc  0x01, 0x1, 0x0   	ADDWFC	r0x01, F
0037fe   c000     movff   0x000, 0xfe9     	MOVFF	r0x00, FSR0L
003800   ffe9
003802   c001     movff   0x001, 0xfea     	MOVFF	r0x01, FSR0H
003804   ffea
003806   6aef     clrf    0xef, 0x0        	CLRF	INDF0
                                           ; removed redundant BANKSEL
                                           ;	.line	26; F:\OneDrive\API_PINGUINO_18F4550\API\user\/user.c	if (receivedbyte > 0)
003808   51a2     movf    0xa2, 0x0, 0x1   	MOVF	_receivedbyte, W, B
00380a   e00c     bz      0x003824         	BZ	_00667_DS_
                                           ;	.line	28; F:\OneDrive\API_PINGUINO_18F4550\API\user\/user.c	lcd_clear();
00380c   ec3e     call    0x003c7c, 0x0call    0x003c7c, 0x0 	CALL	_lcd_clear
00380e   f01e
                                           ;	.line	29; F:\OneDrive\API_PINGUINO_18F4550\API\user\/user.c	lcd_print(buffer);
003810   0e80     movlw   0x80             	MOVLW	0x80
                                           ; #	MOVWF	r0x02
                                           ; #	MOVF	r0x02, W
003812   6ee5     movwf   0xe5, 0x0        	MOVWF	POSTDEC1
003814   0e02     movlw   0x02             	MOVLW	HIGH(_buffer)
003816   6ee5     movwf   0xe5, 0x0        	MOVWF	POSTDEC1
003818   0e40     movlw   0x40             	MOVLW	LOW(_buffer)
00381a   6ee5     movwf   0xe5, 0x0        	MOVWF	POSTDEC1
00381c   ece2     call    0x0035c4, 0x0call    0x0035c4, 0x0 	CALL	_lcd_print
00381e   f01a
003820   0e03     movlw   0x03             	MOVLW	0x03
003822   26e1     addwf   0xe1, 0x1, 0x0   	ADDWF	FSR1L, F
                                           _00667_DS_:
003824   cfe4     movff   0xfe4, 0x001     	MOVFF	PREINC1, r0x01
003826   f001
003828   cfe4     movff   0xfe4, 0x000     	MOVFF	PREINC1, r0x00
00382a   f000
00382c   0012     return  0x0              	RETURN	
                                           
                                           ; ; Starting pCode block
                                           S_main__setup	code
                                           _setup:
                                           ;	.line	5; F:\OneDrive\API_PINGUINO_18F4550\API\user\/user.c	lcd_pins(0, 1, 2, 3, 4, 5, 0, 0, 0, 0); 
003490   6ae5     clrf    0xe5, 0x0        	CLRF	POSTDEC1
003492   6ae5     clrf    0xe5, 0x0        	CLRF	POSTDEC1
003494   6ae5     clrf    0xe5, 0x0        	CLRF	POSTDEC1
003496   6ae5     clrf    0xe5, 0x0        	CLRF	POSTDEC1
003498   0e05     movlw   0x05             	MOVLW	0x05
00349a   6ee5     movwf   0xe5, 0x0        	MOVWF	POSTDEC1
00349c   0e04     movlw   0x04             	MOVLW	0x04
00349e   6ee5     movwf   0xe5, 0x0        	MOVWF	POSTDEC1
0034a0   0e03     movlw   0x03             	MOVLW	0x03
0034a2   6ee5     movwf   0xe5, 0x0        	MOVWF	POSTDEC1
0034a4   0e02     movlw   0x02             	MOVLW	0x02
0034a6   6ee5     movwf   0xe5, 0x0        	MOVWF	POSTDEC1
0034a8   0e01     movlw   0x01             	MOVLW	0x01
0034aa   6ee5     movwf   0xe5, 0x0        	MOVWF	POSTDEC1
0034ac   0e00     movlw   0x00             	MOVLW	0x00
0034ae   6ae5     clrf    0xe5, 0x0        	CLRF	POSTDEC1
0034b0   eca0     call    0x002f40, 0x0call    0x002f40, 0x0 	CALL	_lcd_pins
0034b2   f017
0034b4   0e0a     movlw   0x0a             	MOVLW	0x0a
0034b6   26e1     addwf   0xe1, 0x1, 0x0   	ADDWF	FSR1L, F
                                           ;	.line	6; F:\OneDrive\API_PINGUINO_18F4550\API\user\/user.c	lcd_begin(16, 2);
0034b8   0e02     movlw   0x02             	MOVLW	0x02
0034ba   6ee5     movwf   0xe5, 0x0        	MOVWF	POSTDEC1
0034bc   0e10     movlw   0x10             	MOVLW	0x10
0034be   6ee5     movwf   0xe5, 0x0        	MOVWF	POSTDEC1
0034c0   ec49     call    0x002c92, 0x0call    0x002c92, 0x0 	CALL	_lcd_begin
0034c2   f016
0034c4   52e6     movf    0xe6, 0x1, 0x0   	MOVF	POSTINC1, F
0034c6   52e6     movf    0xe6, 0x1, 0x0   	MOVF	POSTINC1, F
                                           ;	.line	8; F:\OneDrive\API_PINGUINO_18F4550\API\user\/user.c	pinmode(13, OUTPUT);
0034c8   6ae5     clrf    0xe5, 0x0        	CLRF	POSTDEC1
0034ca   0e0d     movlw   0x0d             	MOVLW	0x0d
0034cc   6ee5     movwf   0xe5, 0x0        	MOVWF	POSTDEC1
0034ce   ec58     call    0x0026b0, 0x0call    0x0026b0, 0x0 	CALL	_pinmode
0034d0   f013
0034d2   52e6     movf    0xe6, 0x1, 0x0   	MOVF	POSTINC1, F
0034d4   52e6     movf    0xe6, 0x1, 0x0   	MOVF	POSTINC1, F
                                           ;	.line	10; F:\OneDrive\API_PINGUINO_18F4550\API\user\/user.c	lcd_noDisplay();
0034d6   ec1c     call    0x003c38, 0x0call    0x003c38, 0x0 	CALL	_lcd_noDisplay
0034d8   f01e
                                           ;	.line	11; F:\OneDrive\API_PINGUINO_18F4550\API\user\/user.c	lcd_display();
0034da   ec60     call    0x003cc0, 0x0call    0x003cc0, 0x0 	CALL	_lcd_display
0034dc   f01e
                                           ;	.line	12; F:\OneDrive\API_PINGUINO_18F4550\API\user\/user.c	lcd_setCursor(0,4);
0034de   0e04     movlw   0x04             	MOVLW	0x04
0034e0   6ee5     movwf   0xe5, 0x0        	MOVWF	POSTDEC1
0034e2   0e00     movlw   0x00             	MOVLW	0x00
0034e4   6ae5     clrf    0xe5, 0x0        	CLRF	POSTDEC1
0034e6   eca3     call    0x003746, 0x0call    0x003746, 0x0 	CALL	_lcd_setCursor
0034e8   f01b
0034ea   52e6     movf    0xe6, 0x1, 0x0   	MOVF	POSTINC1, F
0034ec   52e6     movf    0xe6, 0x1, 0x0   	MOVF	POSTINC1, F
                                           ;	.line	13; F:\OneDrive\API_PINGUINO_18F4550\API\user\/user.c	lcd_print("InXource");
0034ee   0e00     movlw   0x00             	MOVLW	UPPER(___str_0)
0034f0   6ee5     movwf   0xe5, 0x0        	MOVWF	POSTDEC1
0034f2   0e24     movlw   0x24             	MOVLW	HIGH(___str_0)
0034f4   6ee5     movwf   0xe5, 0x0        	MOVWF	POSTDEC1
0034f6   0e16     movlw   0x16             	MOVLW	LOW(___str_0)
0034f8   6ee5     movwf   0xe5, 0x0        	MOVWF	POSTDEC1
0034fa   ece2     call    0x0035c4, 0x0call    0x0035c4, 0x0 	CALL	_lcd_print
0034fc   f01a
0034fe   0e03     movlw   0x03             	MOVLW	0x03
003500   26e1     addwf   0xe1, 0x1, 0x0   	ADDWF	FSR1L, F
                                           ;	.line	14; F:\OneDrive\API_PINGUINO_18F4550\API\user\/user.c	lcd_setCursor(2,1);
003502   0e01     movlw   0x01             	MOVLW	0x01
003504   6ee5     movwf   0xe5, 0x0        	MOVWF	POSTDEC1
003506   0e02     movlw   0x02             	MOVLW	0x02
003508   6ee5     movwf   0xe5, 0x0        	MOVWF	POSTDEC1
00350a   eca3     call    0x003746, 0x0call    0x003746, 0x0 	CALL	_lcd_setCursor
00350c   f01b
00350e   52e6     movf    0xe6, 0x1, 0x0   	MOVF	POSTINC1, F
003510   52e6     movf    0xe6, 0x1, 0x0   	MOVF	POSTINC1, F
                                           ;	.line	15; F:\OneDrive\API_PINGUINO_18F4550\API\user\/user.c	lcd_print("Prueba.....");
003512   0e00     movlw   0x00             	MOVLW	UPPER(___str_1)
003514   6ee5     movwf   0xe5, 0x0        	MOVWF	POSTDEC1
003516   0e24     movlw   0x24             	MOVLW	HIGH(___str_1)
003518   6ee5     movwf   0xe5, 0x0        	MOVWF	POSTDEC1
00351a   0e20     movlw   0x20             	MOVLW	LOW(___str_1)
00351c   6ee5     movwf   0xe5, 0x0        	MOVWF	POSTDEC1
00351e   ece2     call    0x0035c4, 0x0call    0x0035c4, 0x0 	CALL	_lcd_print
003520   f01a
003522   0e03     movlw   0x03             	MOVLW	0x03
003524   26e1     addwf   0xe1, 0x1, 0x0   	ADDWF	FSR1L, F
                                           ;	.line	16; F:\OneDrive\API_PINGUINO_18F4550\API\user\/user.c	lcd_blink();
003526   ec57     call    0x003cae, 0x0call    0x003cae, 0x0 	CALL	_lcd_blink
003528   f01e
00352a   0012     return  0x0              	RETURN	
                                           
                                           ; ; Starting pCode block
                                           S_main__IO_digital	code
                                           _IO_digital:
                                           ;	.line	123; F:/OneDrive/API_PINGUINO_18F4550/API/pinguino/core/io.c	ADCON1 = 0x0F;				// AN0 to AN12 Digital I/O
003d0a   0e0f     movlw   0x0f             	MOVLW	0x0f
003d0c   6ec1     movwf   0xc1, 0x0        	MOVWF	_ADCON1
                                           ;	.line	124; F:/OneDrive/API_PINGUINO_18F4550/API/pinguino/core/io.c	CMCON = 0x07;               // Comparators as Digital I/O
003d0e   0e07     movlw   0x07             	MOVLW	0x07
003d10   6eb4     movwf   0xb4, 0x0        	MOVWF	_CMCON
003d12   0012     return  0x0              	RETURN	
                                           
                                           ; ; Starting pCode block
                                           S_main__IO_init	code
                                           _IO_init:
                                           ;	.line	53; F:/OneDrive/API_PINGUINO_18F4550/API/pinguino/core/io.c	LATA  = 0x00;
003bc6   6a89     clrf    0x89, 0x0        	CLRF	_LATA
                                           ;	.line	54; F:/OneDrive/API_PINGUINO_18F4550/API/pinguino/core/io.c	LATB  = 0x00;
003bc8   6a8a     clrf    0x8a, 0x0        	CLRF	_LATB
                                           ;	.line	72; F:/OneDrive/API_PINGUINO_18F4550/API/pinguino/core/io.c	LATC  = 0x00;
003bca   6a8b     clrf    0x8b, 0x0        	CLRF	_LATC
                                           ;	.line	79; F:/OneDrive/API_PINGUINO_18F4550/API/pinguino/core/io.c	LATD  = 0x00; 
003bcc   6a8c     clrf    0x8c, 0x0        	CLRF	_LATD
                                           ;	.line	80; F:/OneDrive/API_PINGUINO_18F4550/API/pinguino/core/io.c	LATE  = 0x00; 
003bce   6a8d     clrf    0x8d, 0x0        	CLRF	_LATE
                                           ;	.line	83; F:/OneDrive/API_PINGUINO_18F4550/API/pinguino/core/io.c	TRISA = 0x00;
003bd0   6a92     clrf    0x92, 0x0        	CLRF	_TRISA
                                           ;	.line	85; F:/OneDrive/API_PINGUINO_18F4550/API/pinguino/core/io.c	TRISB = 0x00;
003bd2   6a93     clrf    0x93, 0x0        	CLRF	_TRISB
                                           ;	.line	91; F:/OneDrive/API_PINGUINO_18F4550/API/pinguino/core/io.c	TRISCbits.TRISC0 = 0x00;
003bd4   9094     bcf     0x94, 0x0, 0x0   	BCF	_TRISCbits, 0
                                           ;	.line	92; F:/OneDrive/API_PINGUINO_18F4550/API/pinguino/core/io.c	TRISCbits.TRISC1 = 0x00;
003bd6   9294     bcf     0x94, 0x1, 0x0   	BCF	_TRISCbits, 1
                                           ;	.line	93; F:/OneDrive/API_PINGUINO_18F4550/API/pinguino/core/io.c	TRISCbits.TRISC2 = 0x00;
003bd8   9494     bcf     0x94, 0x2, 0x0   	BCF	_TRISCbits, 2
                                           ;	.line	94; F:/OneDrive/API_PINGUINO_18F4550/API/pinguino/core/io.c	TRISCbits.TRISC6 = 0x00;
003bda   9c94     bcf     0x94, 0x6, 0x0   	BCF	_TRISCbits, 6
                                           ;	.line	95; F:/OneDrive/API_PINGUINO_18F4550/API/pinguino/core/io.c	TRISCbits.TRISC7 = 0x00;
003bdc   9e94     bcf     0x94, 0x7, 0x0   	BCF	_TRISCbits, 7
                                           ;	.line	101; F:/OneDrive/API_PINGUINO_18F4550/API/pinguino/core/io.c	TRISD = 0x00; 
003bde   6a95     clrf    0x95, 0x0        	CLRF	_TRISD
                                           ;	.line	102; F:/OneDrive/API_PINGUINO_18F4550/API/pinguino/core/io.c	TRISE = 0x00; 
003be0   6a96     clrf    0x96, 0x0        	CLRF	_TRISE
                                           ;	.line	106; F:/OneDrive/API_PINGUINO_18F4550/API/pinguino/core/io.c	PORTA  = 0x00;
003be2   6a80     clrf    0x80, 0x0        	CLRF	_PORTA
                                           ;	.line	107; F:/OneDrive/API_PINGUINO_18F4550/API/pinguino/core/io.c	PORTB  = 0x00;
003be4   6a81     clrf    0x81, 0x0        	CLRF	_PORTB
                                           ;	.line	108; F:/OneDrive/API_PINGUINO_18F4550/API/pinguino/core/io.c	PORTC  = 0x00;
003be6   6a82     clrf    0x82, 0x0        	CLRF	_PORTC
                                           ;	.line	112; F:/OneDrive/API_PINGUINO_18F4550/API/pinguino/core/io.c	PORTD  = 0x00; 
003be8   6a83     clrf    0x83, 0x0        	CLRF	_PORTD
                                           ;	.line	113; F:/OneDrive/API_PINGUINO_18F4550/API/pinguino/core/io.c	PORTE  = 0x00; 
003bea   6a84     clrf    0x84, 0x0        	CLRF	_PORTE
003bec   0012     return  0x0              	RETURN	
                                           
                                           ; ; Starting pCode block
                                           S_main__lcd_pins	code
                                           _lcd_pins:
                                           ;	.line	443; F:/OneDrive/API_PINGUINO_18F4550/API/pinguino/libraries/lcdlib.c	void lcd_pins(u8 rs, u8 enable, u8 d0, u8 d1, u8 d2, u8 d3, u8 d4, u8 d5, u8 d6, u8 d7)
002f40   cfd9     movff   0xfd9, 0xfe5     	MOVFF	FSR2L, POSTDEC1
002f42   ffe5
002f44   cfe1     movff   0xfe1, 0xfd9     	MOVFF	FSR1L, FSR2L
002f46   ffd9
002f48   c000     movff   0x000, 0xfe5     	MOVFF	r0x00, POSTDEC1
002f4a   ffe5
002f4c   c001     movff   0x001, 0xfe5     	MOVFF	r0x01, POSTDEC1
002f4e   ffe5
002f50   c002     movff   0x002, 0xfe5     	MOVFF	r0x02, POSTDEC1
002f52   ffe5
002f54   c003     movff   0x003, 0xfe5     	MOVFF	r0x03, POSTDEC1
002f56   ffe5
002f58   c004     movff   0x004, 0xfe5     	MOVFF	r0x04, POSTDEC1
002f5a   ffe5
002f5c   c005     movff   0x005, 0xfe5     	MOVFF	r0x05, POSTDEC1
002f5e   ffe5
002f60   c006     movff   0x006, 0xfe5     	MOVFF	r0x06, POSTDEC1
002f62   ffe5
002f64   c007     movff   0x007, 0xfe5     	MOVFF	r0x07, POSTDEC1
002f66   ffe5
002f68   c008     movff   0x008, 0xfe5     	MOVFF	r0x08, POSTDEC1
002f6a   ffe5
002f6c   c009     movff   0x009, 0xfe5     	MOVFF	r0x09, POSTDEC1
002f6e   ffe5
002f70   c00a     movff   0x00a, 0xfe5     	MOVFF	r0x0a, POSTDEC1
002f72   ffe5
002f74   c00b     movff   0x00b, 0xfe5     	MOVFF	r0x0b, POSTDEC1
002f76   ffe5
002f78   c00c     movff   0x00c, 0xfe5     	MOVFF	r0x0c, POSTDEC1
002f7a   ffe5
002f7c   c00d     movff   0x00d, 0xfe5     	MOVFF	r0x0d, POSTDEC1
002f7e   ffe5
002f80   0e02     movlw   0x02             	MOVLW	0x02
002f82   cfdb     movff   0xfdb, 0x000     	MOVFF	PLUSW2, r0x00
002f84   f000
002f86   0e03     movlw   0x03             	MOVLW	0x03
002f88   cfdb     movff   0xfdb, 0x001     	MOVFF	PLUSW2, r0x01
002f8a   f001
002f8c   0e04     movlw   0x04             	MOVLW	0x04
002f8e   cfdb     movff   0xfdb, 0x002     	MOVFF	PLUSW2, r0x02
002f90   f002
002f92   0e05     movlw   0x05             	MOVLW	0x05
002f94   cfdb     movff   0xfdb, 0x003     	MOVFF	PLUSW2, r0x03
002f96   f003
002f98   0e06     movlw   0x06             	MOVLW	0x06
002f9a   cfdb     movff   0xfdb, 0x004     	MOVFF	PLUSW2, r0x04
002f9c   f004
002f9e   0e07     movlw   0x07             	MOVLW	0x07
002fa0   cfdb     movff   0xfdb, 0x005     	MOVFF	PLUSW2, r0x05
002fa2   f005
002fa4   0e08     movlw   0x08             	MOVLW	0x08
002fa6   cfdb     movff   0xfdb, 0x006     	MOVFF	PLUSW2, r0x06
002fa8   f006
002faa   0e09     movlw   0x09             	MOVLW	0x09
002fac   cfdb     movff   0xfdb, 0x007     	MOVFF	PLUSW2, r0x07
002fae   f007
002fb0   0e0a     movlw   0x0a             	MOVLW	0x0a
002fb2   cfdb     movff   0xfdb, 0x008     	MOVFF	PLUSW2, r0x08
002fb4   f008
002fb6   0e0b     movlw   0x0b             	MOVLW	0x0b
002fb8   cfdb     movff   0xfdb, 0x009     	MOVFF	PLUSW2, r0x09
002fba   f009
                                           ;	.line	445; F:/OneDrive/API_PINGUINO_18F4550/API/pinguino/libraries/lcdlib.c	lcd_init(((d4 + d5 + d6 + d7)==0), rs, -1, enable, d0, d1, d2, d3, d4, d5, d6, d7);
002fbc   c006     movff   0x006, 0x00a     	MOVFF	r0x06, r0x0a
002fbe   f00a
002fc0   6a0b     clrf    0x0b, 0x0        	CLRF	r0x0b
002fc2   c007     movff   0x007, 0x00c     	MOVFF	r0x07, r0x0c
002fc4   f00c
002fc6   6a0d     clrf    0x0d, 0x0        	CLRF	r0x0d
002fc8   500c     movf    0x0c, 0x0, 0x0   	MOVF	r0x0c, W
002fca   260a     addwf   0x0a, 0x1, 0x0   	ADDWF	r0x0a, F
002fcc   500d     movf    0x0d, 0x0, 0x0   	MOVF	r0x0d, W
002fce   220b     addwfc  0x0b, 0x1, 0x0   	ADDWFC	r0x0b, F
002fd0   c008     movff   0x008, 0x00c     	MOVFF	r0x08, r0x0c
002fd2   f00c
002fd4   500c     movf    0x0c, 0x0, 0x0   	MOVF	r0x0c, W
002fd6   260a     addwf   0x0a, 0x1, 0x0   	ADDWF	r0x0a, F
002fd8   500d     movf    0x0d, 0x0, 0x0   	MOVF	r0x0d, W
002fda   220b     addwfc  0x0b, 0x1, 0x0   	ADDWFC	r0x0b, F
002fdc   c009     movff   0x009, 0x00c     	MOVFF	r0x09, r0x0c
002fde   f00c
002fe0   500c     movf    0x0c, 0x0, 0x0   	MOVF	r0x0c, W
002fe2   260a     addwf   0x0a, 0x1, 0x0   	ADDWF	r0x0a, F
002fe4   500d     movf    0x0d, 0x0, 0x0   	MOVF	r0x0d, W
002fe6   220b     addwfc  0x0b, 0x1, 0x0   	ADDWFC	r0x0b, F
002fe8   500a     movf    0x0a, 0x0, 0x0   	MOVF	r0x0a, W
002fea   e105     bnz     0x002ff6         	BNZ	_00642_DS_
002fec   500b     movf    0x0b, 0x0, 0x0   	MOVF	r0x0b, W
002fee   e103     bnz     0x002ff6         	BNZ	_00642_DS_
002ff0   6a0a     clrf    0x0a, 0x0        	CLRF	r0x0a
002ff2   2a0a     incf    0x0a, 0x1, 0x0   	INCF	r0x0a, F
002ff4   d001     bra     0x002ff8         	BRA	_00643_DS_
                                           _00642_DS_:
002ff6   6a0a     clrf    0x0a, 0x0        	CLRF	r0x0a
                                           _00643_DS_:
002ff8   5009     movf    0x09, 0x0, 0x0   	MOVF	r0x09, W
002ffa   6ee5     movwf   0xe5, 0x0        	MOVWF	POSTDEC1
002ffc   5008     movf    0x08, 0x0, 0x0   	MOVF	r0x08, W
002ffe   6ee5     movwf   0xe5, 0x0        	MOVWF	POSTDEC1
003000   5007     movf    0x07, 0x0, 0x0   	MOVF	r0x07, W
003002   6ee5     movwf   0xe5, 0x0        	MOVWF	POSTDEC1
003004   5006     movf    0x06, 0x0, 0x0   	MOVF	r0x06, W
003006   6ee5     movwf   0xe5, 0x0        	MOVWF	POSTDEC1
003008   5005     movf    0x05, 0x0, 0x0   	MOVF	r0x05, W
00300a   6ee5     movwf   0xe5, 0x0        	MOVWF	POSTDEC1
00300c   5004     movf    0x04, 0x0, 0x0   	MOVF	r0x04, W
00300e   6ee5     movwf   0xe5, 0x0        	MOVWF	POSTDEC1
003010   5003     movf    0x03, 0x0, 0x0   	MOVF	r0x03, W
003012   6ee5     movwf   0xe5, 0x0        	MOVWF	POSTDEC1
003014   5002     movf    0x02, 0x0, 0x0   	MOVF	r0x02, W
003016   6ee5     movwf   0xe5, 0x0        	MOVWF	POSTDEC1
003018   5001     movf    0x01, 0x0, 0x0   	MOVF	r0x01, W
00301a   6ee5     movwf   0xe5, 0x0        	MOVWF	POSTDEC1
00301c   68e5     setf    0xe5, 0x0        	SETF	POSTDEC1
00301e   5000     movf    0x00, 0x0, 0x0   	MOVF	r0x00, W
003020   6ee5     movwf   0xe5, 0x0        	MOVWF	POSTDEC1
003022   500a     movf    0x0a, 0x0, 0x0   	MOVF	r0x0a, W
003024   6ee5     movwf   0xe5, 0x0        	MOVWF	POSTDEC1
003026   ecf8     call    0x002df0, 0x0call    0x002df0, 0x0 	CALL	_lcd_init
003028   f016
00302a   0e0c     movlw   0x0c             	MOVLW	0x0c
00302c   26e1     addwf   0xe1, 0x1, 0x0   	ADDWF	FSR1L, F
00302e   cfe4     movff   0xfe4, 0x00d     	MOVFF	PREINC1, r0x0d
003030   f00d
003032   cfe4     movff   0xfe4, 0x00c     	MOVFF	PREINC1, r0x0c
003034   f00c
003036   cfe4     movff   0xfe4, 0x00b     	MOVFF	PREINC1, r0x0b
003038   f00b
00303a   cfe4     movff   0xfe4, 0x00a     	MOVFF	PREINC1, r0x0a
00303c   f00a
00303e   cfe4     movff   0xfe4, 0x009     	MOVFF	PREINC1, r0x09
003040   f009
003042   cfe4     movff   0xfe4, 0x008     	MOVFF	PREINC1, r0x08
003044   f008
003046   cfe4     movff   0xfe4, 0x007     	MOVFF	PREINC1, r0x07
003048   f007
00304a   cfe4     movff   0xfe4, 0x006     	MOVFF	PREINC1, r0x06
00304c   f006
00304e   cfe4     movff   0xfe4, 0x005     	MOVFF	PREINC1, r0x05
003050   f005
003052   cfe4     movff   0xfe4, 0x004     	MOVFF	PREINC1, r0x04
003054   f004
003056   cfe4     movff   0xfe4, 0x003     	MOVFF	PREINC1, r0x03
003058   f003
00305a   cfe4     movff   0xfe4, 0x002     	MOVFF	PREINC1, r0x02
00305c   f002
00305e   cfe4     movff   0xfe4, 0x001     	MOVFF	PREINC1, r0x01
003060   f001
003062   cfe4     movff   0xfe4, 0x000     	MOVFF	PREINC1, r0x00
003064   f000
003066   cfe4     movff   0xfe4, 0xfd9     	MOVFF	PREINC1, FSR2L
003068   ffd9
00306a   0012     return  0x0              	RETURN	
                                           
                                           ; ; Starting pCode block
                                           S_main__lcd_init	code
                                           _lcd_init:
                                           ;	.line	405; F:/OneDrive/API_PINGUINO_18F4550/API/pinguino/libraries/lcdlib.c	void lcd_init(u8 fourbitmode, u8 rs, u8 rw, u8 enable, 
002df0   cfd9     movff   0xfd9, 0xfe5     	MOVFF	FSR2L, POSTDEC1
002df2   ffe5
002df4   cfe1     movff   0xfe1, 0xfd9     	MOVFF	FSR1L, FSR2L
002df6   ffd9
002df8   c000     movff   0x000, 0xfe5     	MOVFF	r0x00, POSTDEC1
002dfa   ffe5
002dfc   c001     movff   0x001, 0xfe5     	MOVFF	r0x01, POSTDEC1
002dfe   ffe5
002e00   c002     movff   0x002, 0xfe5     	MOVFF	r0x02, POSTDEC1
002e02   ffe5
002e04   c003     movff   0x003, 0xfe5     	MOVFF	r0x03, POSTDEC1
002e06   ffe5
002e08   c004     movff   0x004, 0xfe5     	MOVFF	r0x04, POSTDEC1
002e0a   ffe5
002e0c   c005     movff   0x005, 0xfe5     	MOVFF	r0x05, POSTDEC1
002e0e   ffe5
002e10   c006     movff   0x006, 0xfe5     	MOVFF	r0x06, POSTDEC1
002e12   ffe5
002e14   c007     movff   0x007, 0xfe5     	MOVFF	r0x07, POSTDEC1
002e16   ffe5
002e18   c008     movff   0x008, 0xfe5     	MOVFF	r0x08, POSTDEC1
002e1a   ffe5
002e1c   0e02     movlw   0x02             	MOVLW	0x02
002e1e   cfdb     movff   0xfdb, 0x000     	MOVFF	PLUSW2, r0x00
002e20   f000
002e22   0e03     movlw   0x03             	MOVLW	0x03
002e24   cfdb     movff   0xfdb, 0x289     	MOVFF	PLUSW2, __rs_pin
002e26   f289
002e28   0e04     movlw   0x04             	MOVLW	0x04
002e2a   cfdb     movff   0xfdb, 0x28a     	MOVFF	PLUSW2, __rw_pin
002e2c   f28a
002e2e   0e05     movlw   0x05             	MOVLW	0x05
002e30   cfdb     movff   0xfdb, 0x28b     	MOVFF	PLUSW2, __enable_pin
002e32   f28b
002e34   0e06     movlw   0x06             	MOVLW	0x06
002e36   cfdb     movff   0xfdb, 0x001     	MOVFF	PLUSW2, r0x01
002e38   f001
002e3a   0e07     movlw   0x07             	MOVLW	0x07
002e3c   cfdb     movff   0xfdb, 0x002     	MOVFF	PLUSW2, r0x02
002e3e   f002
002e40   0e08     movlw   0x08             	MOVLW	0x08
002e42   cfdb     movff   0xfdb, 0x003     	MOVFF	PLUSW2, r0x03
002e44   f003
002e46   0e09     movlw   0x09             	MOVLW	0x09
002e48   cfdb     movff   0xfdb, 0x004     	MOVFF	PLUSW2, r0x04
002e4a   f004
002e4c   0e0a     movlw   0x0a             	MOVLW	0x0a
002e4e   cfdb     movff   0xfdb, 0x005     	MOVFF	PLUSW2, r0x05
002e50   f005
002e52   0e0b     movlw   0x0b             	MOVLW	0x0b
002e54   cfdb     movff   0xfdb, 0x006     	MOVFF	PLUSW2, r0x06
002e56   f006
002e58   0e0c     movlw   0x0c             	MOVLW	0x0c
002e5a   cfdb     movff   0xfdb, 0x007     	MOVFF	PLUSW2, r0x07
002e5c   f007
002e5e   0e0d     movlw   0x0d             	MOVLW	0x0d
002e60   cfdb     movff   0xfdb, 0x008     	MOVFF	PLUSW2, r0x08
002e62   f008
                                           ;	.line	415; F:/OneDrive/API_PINGUINO_18F4550/API/pinguino/libraries/lcdlib.c	_data_pins[0] = d0;
002e64   5001     movf    0x01, 0x0, 0x0   	MOVF	r0x01, W
002e66   0102     movlb   0x2              	BANKSEL	__data_pins
002e68   6f80     movwf   0x80, 0x1        	MOVWF	__data_pins, B
                                           ;	.line	416; F:/OneDrive/API_PINGUINO_18F4550/API/pinguino/libraries/lcdlib.c	_data_pins[1] = d1;
002e6a   5002     movf    0x02, 0x0, 0x0   	MOVF	r0x02, W
                                           ; removed redundant BANKSEL
002e6c   6f81     movwf   0x81, 0x1        	MOVWF	(__data_pins + 1), B
                                           ;	.line	417; F:/OneDrive/API_PINGUINO_18F4550/API/pinguino/libraries/lcdlib.c	_data_pins[2] = d2;
002e6e   5003     movf    0x03, 0x0, 0x0   	MOVF	r0x03, W
                                           ; removed redundant BANKSEL
002e70   6f82     movwf   0x82, 0x1        	MOVWF	(__data_pins + 2), B
                                           ;	.line	418; F:/OneDrive/API_PINGUINO_18F4550/API/pinguino/libraries/lcdlib.c	_data_pins[3] = d3; 
002e72   5004     movf    0x04, 0x0, 0x0   	MOVF	r0x04, W
                                           ; removed redundant BANKSEL
002e74   6f83     movwf   0x83, 0x1        	MOVWF	(__data_pins + 3), B
                                           ;	.line	419; F:/OneDrive/API_PINGUINO_18F4550/API/pinguino/libraries/lcdlib.c	_data_pins[4] = d4;
002e76   5005     movf    0x05, 0x0, 0x0   	MOVF	r0x05, W
                                           ; removed redundant BANKSEL
002e78   6f84     movwf   0x84, 0x1        	MOVWF	(__data_pins + 4), B
                                           ;	.line	420; F:/OneDrive/API_PINGUINO_18F4550/API/pinguino/libraries/lcdlib.c	_data_pins[5] = d5;
002e7a   5006     movf    0x06, 0x0, 0x0   	MOVF	r0x06, W
                                           ; removed redundant BANKSEL
002e7c   6f85     movwf   0x85, 0x1        	MOVWF	(__data_pins + 5), B
                                           ;	.line	421; F:/OneDrive/API_PINGUINO_18F4550/API/pinguino/libraries/lcdlib.c	_data_pins[6] = d6;
002e7e   5007     movf    0x07, 0x0, 0x0   	MOVF	r0x07, W
                                           ; removed redundant BANKSEL
002e80   6f86     movwf   0x86, 0x1        	MOVWF	(__data_pins + 6), B
                                           ;	.line	422; F:/OneDrive/API_PINGUINO_18F4550/API/pinguino/libraries/lcdlib.c	_data_pins[7] = d7; 
002e82   5008     movf    0x08, 0x0, 0x0   	MOVF	r0x08, W
                                           ; removed redundant BANKSEL
002e84   6f87     movwf   0x87, 0x1        	MOVWF	(__data_pins + 7), B
                                           ;	.line	424; F:/OneDrive/API_PINGUINO_18F4550/API/pinguino/libraries/lcdlib.c	pinmode(_rs_pin, OUTPUT);
002e86   6ae5     clrf    0xe5, 0x0        	CLRF	POSTDEC1
002e88   0102     movlb   0x2              	BANKSEL	__rs_pin
002e8a   5189     movf    0x89, 0x0, 0x1   	MOVF	__rs_pin, W, B
002e8c   6ee5     movwf   0xe5, 0x0        	MOVWF	POSTDEC1
002e8e   ec58     call    0x0026b0, 0x0call    0x0026b0, 0x0 	CALL	_pinmode
002e90   f013
002e92   52e6     movf    0xe6, 0x1, 0x0   	MOVF	POSTINC1, F
002e94   52e6     movf    0xe6, 0x1, 0x0   	MOVF	POSTINC1, F
                                           ;	.line	426; F:/OneDrive/API_PINGUINO_18F4550/API/pinguino/libraries/lcdlib.c	pinmode(_enable_pin, OUTPUT);
002e96   6ae5     clrf    0xe5, 0x0        	CLRF	POSTDEC1
002e98   0102     movlb   0x2              	BANKSEL	__enable_pin
002e9a   518b     movf    0x8b, 0x0, 0x1   	MOVF	__enable_pin, W, B
002e9c   6ee5     movwf   0xe5, 0x0        	MOVWF	POSTDEC1
002e9e   ec58     call    0x0026b0, 0x0call    0x0026b0, 0x0 	CALL	_pinmode
002ea0   f013
002ea2   52e6     movf    0xe6, 0x1, 0x0   	MOVF	POSTINC1, F
002ea4   52e6     movf    0xe6, 0x1, 0x0   	MOVF	POSTINC1, F
                                           ;	.line	428; F:/OneDrive/API_PINGUINO_18F4550/API/pinguino/libraries/lcdlib.c	if (fourbitmode)
002ea6   5000     movf    0x00, 0x0, 0x0   	MOVF	r0x00, W
002ea8   e01b     bz      0x002ee0         	BZ	_00612_DS_
002eaa   0102     movlb   0x2              	BANKSEL	__displayfunction
                                           ;	.line	430; F:/OneDrive/API_PINGUINO_18F4550/API/pinguino/libraries/lcdlib.c	_displayfunction = LCD_4BITMODE | LCD_1LINE | LCD_5x8DOTS;
002eac   6b9f     clrf    0x9f, 0x1        	CLRF	__displayfunction, B
                                           ;	.line	431; F:/OneDrive/API_PINGUINO_18F4550/API/pinguino/libraries/lcdlib.c	for (i = 0; i < 4; i++)
002eae   6a00     clrf    0x00, 0x0        	CLRF	r0x00
                                           _00614_DS_:
                                           ;	.line	432; F:/OneDrive/API_PINGUINO_18F4550/API/pinguino/libraries/lcdlib.c	pinmode(_data_pins[i], OUTPUT);
002eb0   0e80     movlw   0x80             	MOVLW	LOW(__data_pins)
002eb2   2400     addwf   0x00, 0x0, 0x0   	ADDWF	r0x00, W
002eb4   6e01     movwf   0x01, 0x0        	MOVWF	r0x01
002eb6   6a02     clrf    0x02, 0x0        	CLRF	r0x02
002eb8   0e02     movlw   0x02             	MOVLW	HIGH(__data_pins)
002eba   2202     addwfc  0x02, 0x1, 0x0   	ADDWFC	r0x02, F
002ebc   c001     movff   0x001, 0xfe9     	MOVFF	r0x01, FSR0L
002ebe   ffe9
002ec0   c002     movff   0x002, 0xfea     	MOVFF	r0x02, FSR0H
002ec2   ffea
002ec4   cfef     movff   0xfef, 0x001     	MOVFF	INDF0, r0x01
002ec6   f001
002ec8   6ae5     clrf    0xe5, 0x0        	CLRF	POSTDEC1
002eca   5001     movf    0x01, 0x0, 0x0   	MOVF	r0x01, W
002ecc   6ee5     movwf   0xe5, 0x0        	MOVWF	POSTDEC1
002ece   ec58     call    0x0026b0, 0x0call    0x0026b0, 0x0 	CALL	_pinmode
002ed0   f013
002ed2   52e6     movf    0xe6, 0x1, 0x0   	MOVF	POSTINC1, F
002ed4   52e6     movf    0xe6, 0x1, 0x0   	MOVF	POSTINC1, F
                                           ;	.line	431; F:/OneDrive/API_PINGUINO_18F4550/API/pinguino/libraries/lcdlib.c	for (i = 0; i < 4; i++)
002ed6   2a00     incf    0x00, 0x1, 0x0   	INCF	r0x00, F
002ed8   0e04     movlw   0x04             	MOVLW	0x04
002eda   5c00     subwf   0x00, 0x0, 0x0   	SUBWF	r0x00, W
002edc   e3e9     bnc     0x002eb0         	BNC	_00614_DS_
002ede   d01b     bra     0x002f16         	BRA	_00618_DS_
                                           _00612_DS_:
                                           ;	.line	436; F:/OneDrive/API_PINGUINO_18F4550/API/pinguino/libraries/lcdlib.c	_displayfunction = LCD_8BITMODE | LCD_1LINE | LCD_5x8DOTS;
002ee0   0e10     movlw   0x10             	MOVLW	0x10
002ee2   0102     movlb   0x2              	BANKSEL	__displayfunction
002ee4   6f9f     movwf   0x9f, 0x1        	MOVWF	__displayfunction, B
                                           ;	.line	437; F:/OneDrive/API_PINGUINO_18F4550/API/pinguino/libraries/lcdlib.c	for (i = 0; i < 8; i++)
002ee6   6a00     clrf    0x00, 0x0        	CLRF	r0x00
                                           _00616_DS_:
                                           ;	.line	438; F:/OneDrive/API_PINGUINO_18F4550/API/pinguino/libraries/lcdlib.c	pinmode(_data_pins[i], OUTPUT);
002ee8   0e80     movlw   0x80             	MOVLW	LOW(__data_pins)
002eea   2400     addwf   0x00, 0x0, 0x0   	ADDWF	r0x00, W
002eec   6e01     movwf   0x01, 0x0        	MOVWF	r0x01
002eee   6a02     clrf    0x02, 0x0        	CLRF	r0x02
002ef0   0e02     movlw   0x02             	MOVLW	HIGH(__data_pins)
002ef2   2202     addwfc  0x02, 0x1, 0x0   	ADDWFC	r0x02, F
002ef4   c001     movff   0x001, 0xfe9     	MOVFF	r0x01, FSR0L
002ef6   ffe9
002ef8   c002     movff   0x002, 0xfea     	MOVFF	r0x02, FSR0H
002efa   ffea
002efc   cfef     movff   0xfef, 0x001     	MOVFF	INDF0, r0x01
002efe   f001
002f00   6ae5     clrf    0xe5, 0x0        	CLRF	POSTDEC1
002f02   5001     movf    0x01, 0x0, 0x0   	MOVF	r0x01, W
002f04   6ee5     movwf   0xe5, 0x0        	MOVWF	POSTDEC1
002f06   ec58     call    0x0026b0, 0x0call    0x0026b0, 0x0 	CALL	_pinmode
002f08   f013
002f0a   52e6     movf    0xe6, 0x1, 0x0   	MOVF	POSTINC1, F
002f0c   52e6     movf    0xe6, 0x1, 0x0   	MOVF	POSTINC1, F
                                           ;	.line	437; F:/OneDrive/API_PINGUINO_18F4550/API/pinguino/libraries/lcdlib.c	for (i = 0; i < 8; i++)
002f0e   2a00     incf    0x00, 0x1, 0x0   	INCF	r0x00, F
002f10   0e08     movlw   0x08             	MOVLW	0x08
002f12   5c00     subwf   0x00, 0x0, 0x0   	SUBWF	r0x00, W
002f14   e3e9     bnc     0x002ee8         	BNC	_00616_DS_
                                           _00618_DS_:
002f16   cfe4     movff   0xfe4, 0x008     	MOVFF	PREINC1, r0x08
002f18   f008
002f1a   cfe4     movff   0xfe4, 0x007     	MOVFF	PREINC1, r0x07
002f1c   f007
002f1e   cfe4     movff   0xfe4, 0x006     	MOVFF	PREINC1, r0x06
002f20   f006
002f22   cfe4     movff   0xfe4, 0x005     	MOVFF	PREINC1, r0x05
002f24   f005
002f26   cfe4     movff   0xfe4, 0x004     	MOVFF	PREINC1, r0x04
002f28   f004
002f2a   cfe4     movff   0xfe4, 0x003     	MOVFF	PREINC1, r0x03
002f2c   f003
002f2e   cfe4     movff   0xfe4, 0x002     	MOVFF	PREINC1, r0x02
002f30   f002
002f32   cfe4     movff   0xfe4, 0x001     	MOVFF	PREINC1, r0x01
002f34   f001
002f36   cfe4     movff   0xfe4, 0x000     	MOVFF	PREINC1, r0x00
002f38   f000
002f3a   cfe4     movff   0xfe4, 0xfd9     	MOVFF	PREINC1, FSR2L
002f3c   ffd9
002f3e   0012     return  0x0              	RETURN	
                                           
                                           ; ; Starting pCode block
                                           S_main__lcd_begin	code
                                           _lcd_begin:
                                           ;	.line	330; F:/OneDrive/API_PINGUINO_18F4550/API/pinguino/libraries/lcdlib.c	void lcd_begin(u8 lines, u8 dotsize)
002c92   cfd9     movff   0xfd9, 0xfe5     	MOVFF	FSR2L, POSTDEC1
002c94   ffe5
002c96   cfe1     movff   0xfe1, 0xfd9     	MOVFF	FSR1L, FSR2L
002c98   ffd9
002c9a   c000     movff   0x000, 0xfe5     	MOVFF	r0x00, POSTDEC1
002c9c   ffe5
002c9e   c001     movff   0x001, 0xfe5     	MOVFF	r0x01, POSTDEC1
002ca0   ffe5
002ca2   0e02     movlw   0x02             	MOVLW	0x02
002ca4   cfdb     movff   0xfdb, 0x000     	MOVFF	PLUSW2, r0x00
002ca6   f000
002ca8   0e03     movlw   0x03             	MOVLW	0x03
002caa   cfdb     movff   0xfdb, 0x001     	MOVFF	PLUSW2, r0x01
002cac   f001
                                           ;	.line	332; F:/OneDrive/API_PINGUINO_18F4550/API/pinguino/libraries/lcdlib.c	if (lines > 1)
002cae   0e02     movlw   0x02             	MOVLW	0x02
                                           ; #	SUBWF	r0x00, W
                                           ; #	BTFSS	STATUS, 0
                                           ; #	GOTO	_00578_DS_
                                           ; #	BSF	__displayfunction, 3, B
                                           ; #	MOVFF	r0x00, __numlines
                                           ;	.line	333; F:/OneDrive/API_PINGUINO_18F4550/API/pinguino/libraries/lcdlib.c	_displayfunction |= LCD_2LINE;
002cb0   5c00     subwf   0x00, 0x0, 0x0   	SUBWF	r0x00, W
                                           ;	.line	335; F:/OneDrive/API_PINGUINO_18F4550/API/pinguino/libraries/lcdlib.c	_numlines = lines;
002cb2   e302     bnc     0x002cb8         	BNC	_10704_DS_
002cb4   0102     movlb   0x2              	BANKSEL	__displayfunction
002cb6   879f     bsf     0x9f, 0x3, 0x1   	BSF	__displayfunction, 3, B
                                           _10704_DS_:
002cb8   c000     movff   0x000, 0x2a0     	MOVFF	r0x00, __numlines
002cba   f2a0
002cbc   0102     movlb   0x2              	BANKSEL	__currline
                                           ;	.line	336; F:/OneDrive/API_PINGUINO_18F4550/API/pinguino/libraries/lcdlib.c	_currline = 0;
002cbe   6b9c     clrf    0x9c, 0x1        	CLRF	__currline, B
                                           ;	.line	339; F:/OneDrive/API_PINGUINO_18F4550/API/pinguino/libraries/lcdlib.c	if ((dotsize != 0) && (lines == 1))
002cc0   5001     movf    0x01, 0x0, 0x0   	MOVF	r0x01, W
002cc2   e005     bz      0x002cce         	BZ	_00580_DS_
002cc4   5000     movf    0x00, 0x0, 0x0   	MOVF	r0x00, W
002cc6   0a01     xorlw   0x01             	XORLW	0x01
002cc8   e102     bnz     0x002cce         	BNZ	_00580_DS_
                                           _00602_DS_:
002cca   0102     movlb   0x2              	BANKSEL	__displayfunction
                                           ;	.line	340; F:/OneDrive/API_PINGUINO_18F4550/API/pinguino/libraries/lcdlib.c	_displayfunction |= LCD_5x10DOTS;
002ccc   859f     bsf     0x9f, 0x2, 0x1   	BSF	__displayfunction, 2, B
                                           _00580_DS_:
                                           ;	.line	342; F:/OneDrive/API_PINGUINO_18F4550/API/pinguino/libraries/lcdlib.c	Delayms(15);								// Wait more than 15 ms after VDD rises to 4.5V
002cce   6ae5     clrf    0xe5, 0x0        	CLRF	POSTDEC1
002cd0   0e0f     movlw   0x0f             	MOVLW	0x0f
002cd2   6ee5     movwf   0xe5, 0x0        	MOVWF	POSTDEC1
002cd4   ec92     call    0x003324, 0x0call    0x003324, 0x0 	CALL	_Delayms
002cd6   f019
002cd8   52e6     movf    0xe6, 0x1, 0x0   	MOVF	POSTINC1, F
002cda   52e6     movf    0xe6, 0x1, 0x0   	MOVF	POSTINC1, F
                                           ;	.line	345; F:/OneDrive/API_PINGUINO_18F4550/API/pinguino/libraries/lcdlib.c	digitalwrite(_rs_pin, LOW);
002cdc   6ae5     clrf    0xe5, 0x0        	CLRF	POSTDEC1
002cde   0102     movlb   0x2              	BANKSEL	__rs_pin
002ce0   5189     movf    0x89, 0x0, 0x1   	MOVF	__rs_pin, W, B
002ce2   6ee5     movwf   0xe5, 0x0        	MOVWF	POSTDEC1
002ce4   ec29     call    0x002452, 0x0call    0x002452, 0x0 	CALL	_digitalwrite
002ce6   f012
002ce8   52e6     movf    0xe6, 0x1, 0x0   	MOVF	POSTINC1, F
002cea   52e6     movf    0xe6, 0x1, 0x0   	MOVF	POSTINC1, F
                                           ;	.line	346; F:/OneDrive/API_PINGUINO_18F4550/API/pinguino/libraries/lcdlib.c	digitalwrite(_enable_pin, LOW);
002cec   6ae5     clrf    0xe5, 0x0        	CLRF	POSTDEC1
002cee   0102     movlb   0x2              	BANKSEL	__enable_pin
002cf0   518b     movf    0x8b, 0x0, 0x1   	MOVF	__enable_pin, W, B
002cf2   6ee5     movwf   0xe5, 0x0        	MOVWF	POSTDEC1
002cf4   ec29     call    0x002452, 0x0call    0x002452, 0x0 	CALL	_digitalwrite
002cf6   f012
002cf8   52e6     movf    0xe6, 0x1, 0x0   	MOVF	POSTINC1, F
002cfa   52e6     movf    0xe6, 0x1, 0x0   	MOVF	POSTINC1, F
002cfc   0102     movlb   0x2              	BANKSEL	__displayfunction
                                           ;	.line	349; F:/OneDrive/API_PINGUINO_18F4550/API/pinguino/libraries/lcdlib.c	if (! (_displayfunction & LCD_8BITMODE) )
002cfe   b99f     btfsc   0x9f, 0x4, 0x1   	BTFSC	__displayfunction, 4, B
002d00   d02a     bra     0x002d56         	BRA	_00583_DS_
                                           ;	.line	354; F:/OneDrive/API_PINGUINO_18F4550/API/pinguino/libraries/lcdlib.c	lcd_write4bits(0x03);
002d02   0e03     movlw   0x03             	MOVLW	0x03
002d04   6ee5     movwf   0xe5, 0x0        	MOVWF	POSTDEC1
002d06   ec63     call    0x0036c6, 0x0call    0x0036c6, 0x0 	CALL	_lcd_write4bits
002d08   f01b
002d0a   52e6     movf    0xe6, 0x1, 0x0   	MOVF	POSTINC1, F
                                           ;	.line	355; F:/OneDrive/API_PINGUINO_18F4550/API/pinguino/libraries/lcdlib.c	Delayms(5);									// Wait for more than 4.1 ms
002d0c   6ae5     clrf    0xe5, 0x0        	CLRF	POSTDEC1
002d0e   0e05     movlw   0x05             	MOVLW	0x05
002d10   6ee5     movwf   0xe5, 0x0        	MOVWF	POSTDEC1
002d12   ec92     call    0x003324, 0x0call    0x003324, 0x0 	CALL	_Delayms
002d14   f019
002d16   52e6     movf    0xe6, 0x1, 0x0   	MOVF	POSTINC1, F
002d18   52e6     movf    0xe6, 0x1, 0x0   	MOVF	POSTINC1, F
                                           ;	.line	357; F:/OneDrive/API_PINGUINO_18F4550/API/pinguino/libraries/lcdlib.c	lcd_write4bits(0x03);
002d1a   0e03     movlw   0x03             	MOVLW	0x03
002d1c   6ee5     movwf   0xe5, 0x0        	MOVWF	POSTDEC1
002d1e   ec63     call    0x0036c6, 0x0call    0x0036c6, 0x0 	CALL	_lcd_write4bits
002d20   f01b
002d22   52e6     movf    0xe6, 0x1, 0x0   	MOVF	POSTINC1, F
                                           ;	.line	358; F:/OneDrive/API_PINGUINO_18F4550/API/pinguino/libraries/lcdlib.c	Delayus(150);								// Wait more than 100 s
002d24   6ae5     clrf    0xe5, 0x0        	CLRF	POSTDEC1
002d26   0e96     movlw   0x96             	MOVLW	0x96
002d28   6ee5     movwf   0xe5, 0x0        	MOVWF	POSTDEC1
002d2a   ec0c     call    0x003a18, 0x0call    0x003a18, 0x0 	CALL	_Delayus
002d2c   f01d
002d2e   52e6     movf    0xe6, 0x1, 0x0   	MOVF	POSTINC1, F
002d30   52e6     movf    0xe6, 0x1, 0x0   	MOVF	POSTINC1, F
                                           ;	.line	360; F:/OneDrive/API_PINGUINO_18F4550/API/pinguino/libraries/lcdlib.c	lcd_write4bits(0x03); 
002d32   0e03     movlw   0x03             	MOVLW	0x03
002d34   6ee5     movwf   0xe5, 0x0        	MOVWF	POSTDEC1
002d36   ec63     call    0x0036c6, 0x0call    0x0036c6, 0x0 	CALL	_lcd_write4bits
002d38   f01b
002d3a   52e6     movf    0xe6, 0x1, 0x0   	MOVF	POSTINC1, F
                                           ;	.line	361; F:/OneDrive/API_PINGUINO_18F4550/API/pinguino/libraries/lcdlib.c	Delayus(150);								// Wait more than 100 s
002d3c   6ae5     clrf    0xe5, 0x0        	CLRF	POSTDEC1
002d3e   0e96     movlw   0x96             	MOVLW	0x96
002d40   6ee5     movwf   0xe5, 0x0        	MOVWF	POSTDEC1
002d42   ec0c     call    0x003a18, 0x0call    0x003a18, 0x0 	CALL	_Delayus
002d44   f01d
002d46   52e6     movf    0xe6, 0x1, 0x0   	MOVF	POSTINC1, F
002d48   52e6     movf    0xe6, 0x1, 0x0   	MOVF	POSTINC1, F
                                           ;	.line	363; F:/OneDrive/API_PINGUINO_18F4550/API/pinguino/libraries/lcdlib.c	lcd_write4bits(0x02); 
002d4a   0e02     movlw   0x02             	MOVLW	0x02
002d4c   6ee5     movwf   0xe5, 0x0        	MOVWF	POSTDEC1
002d4e   ec63     call    0x0036c6, 0x0call    0x0036c6, 0x0 	CALL	_lcd_write4bits
002d50   f01b
002d52   52e6     movf    0xe6, 0x1, 0x0   	MOVF	POSTINC1, F
002d54   d023     bra     0x002d9c         	BRA	_00584_DS_
                                           _00583_DS_:
                                           ;	.line	371; F:/OneDrive/API_PINGUINO_18F4550/API/pinguino/libraries/lcdlib.c	lcd_command(LCD_FUNCTIONSET | _displayfunction);
002d56   0e20     movlw   0x20             	MOVLW	0x20
002d58   0102     movlb   0x2              	BANKSEL	__displayfunction
002d5a   119f     iorwf   0x9f, 0x0, 0x1   	IORWF	__displayfunction, W, B
                                           ; #	MOVWF	r0x00
                                           ; #	MOVF	r0x00, W
002d5c   6ee5     movwf   0xe5, 0x0        	MOVWF	POSTDEC1
002d5e   ecce     call    0x003b9c, 0x0call    0x003b9c, 0x0 	CALL	_lcd_command
002d60   f01d
002d62   52e6     movf    0xe6, 0x1, 0x0   	MOVF	POSTINC1, F
                                           ;	.line	372; F:/OneDrive/API_PINGUINO_18F4550/API/pinguino/libraries/lcdlib.c	Delayms(5);									// Wait for more than 4.1 ms
002d64   6ae5     clrf    0xe5, 0x0        	CLRF	POSTDEC1
002d66   0e05     movlw   0x05             	MOVLW	0x05
002d68   6ee5     movwf   0xe5, 0x0        	MOVWF	POSTDEC1
002d6a   ec92     call    0x003324, 0x0call    0x003324, 0x0 	CALL	_Delayms
002d6c   f019
002d6e   52e6     movf    0xe6, 0x1, 0x0   	MOVF	POSTINC1, F
002d70   52e6     movf    0xe6, 0x1, 0x0   	MOVF	POSTINC1, F
                                           ;	.line	375; F:/OneDrive/API_PINGUINO_18F4550/API/pinguino/libraries/lcdlib.c	lcd_command(LCD_FUNCTIONSET | _displayfunction);
002d72   0e20     movlw   0x20             	MOVLW	0x20
002d74   0102     movlb   0x2              	BANKSEL	__displayfunction
002d76   119f     iorwf   0x9f, 0x0, 0x1   	IORWF	__displayfunction, W, B
                                           ; #	MOVWF	r0x00
                                           ; #	MOVF	r0x00, W
002d78   6ee5     movwf   0xe5, 0x0        	MOVWF	POSTDEC1
002d7a   ecce     call    0x003b9c, 0x0call    0x003b9c, 0x0 	CALL	_lcd_command
002d7c   f01d
002d7e   52e6     movf    0xe6, 0x1, 0x0   	MOVF	POSTINC1, F
                                           ;	.line	376; F:/OneDrive/API_PINGUINO_18F4550/API/pinguino/libraries/lcdlib.c	Delayms(5);									// Wait for more than 4.1 ms
002d80   6ae5     clrf    0xe5, 0x0        	CLRF	POSTDEC1
002d82   0e05     movlw   0x05             	MOVLW	0x05
002d84   6ee5     movwf   0xe5, 0x0        	MOVWF	POSTDEC1
002d86   ec92     call    0x003324, 0x0call    0x003324, 0x0 	CALL	_Delayms
002d88   f019
002d8a   52e6     movf    0xe6, 0x1, 0x0   	MOVF	POSTINC1, F
002d8c   52e6     movf    0xe6, 0x1, 0x0   	MOVF	POSTINC1, F
                                           ;	.line	380; F:/OneDrive/API_PINGUINO_18F4550/API/pinguino/libraries/lcdlib.c	lcd_command(LCD_FUNCTIONSET | _displayfunction);
002d8e   0e20     movlw   0x20             	MOVLW	0x20
002d90   0102     movlb   0x2              	BANKSEL	__displayfunction
002d92   119f     iorwf   0x9f, 0x0, 0x1   	IORWF	__displayfunction, W, B
                                           ; #	MOVWF	r0x00
                                           ; #	MOVF	r0x00, W
002d94   6ee5     movwf   0xe5, 0x0        	MOVWF	POSTDEC1
002d96   ecce     call    0x003b9c, 0x0call    0x003b9c, 0x0 	CALL	_lcd_command
002d98   f01d
002d9a   52e6     movf    0xe6, 0x1, 0x0   	MOVF	POSTINC1, F
                                           _00584_DS_:
                                           ;	.line	384; F:/OneDrive/API_PINGUINO_18F4550/API/pinguino/libraries/lcdlib.c	lcd_command(LCD_FUNCTIONSET | _displayfunction);  
002d9c   0e20     movlw   0x20             	MOVLW	0x20
002d9e   0102     movlb   0x2              	BANKSEL	__displayfunction
002da0   119f     iorwf   0x9f, 0x0, 0x1   	IORWF	__displayfunction, W, B
                                           ; #	MOVWF	r0x00
                                           ; #	MOVF	r0x00, W
002da2   6ee5     movwf   0xe5, 0x0        	MOVWF	POSTDEC1
002da4   ecce     call    0x003b9c, 0x0call    0x003b9c, 0x0 	CALL	_lcd_command
002da6   f01d
002da8   52e6     movf    0xe6, 0x1, 0x0   	MOVF	POSTINC1, F
                                           ;	.line	387; F:/OneDrive/API_PINGUINO_18F4550/API/pinguino/libraries/lcdlib.c	_displaycontrol = LCD_DISPLAYON | LCD_CURSOROFF | LCD_BLINKOFF;  
002daa   0e04     movlw   0x04             	MOVLW	0x04
002dac   0102     movlb   0x2              	BANKSEL	__displaycontrol
002dae   6fa1     movwf   0xa1, 0x1        	MOVWF	__displaycontrol, B
                                           ;	.line	388; F:/OneDrive/API_PINGUINO_18F4550/API/pinguino/libraries/lcdlib.c	lcd_command(LCD_DISPLAYCONTROL | _displaycontrol);
002db0   0e0c     movlw   0x0c             	MOVLW	0x0c
002db2   6ee5     movwf   0xe5, 0x0        	MOVWF	POSTDEC1
002db4   ecce     call    0x003b9c, 0x0call    0x003b9c, 0x0 	CALL	_lcd_command
002db6   f01d
002db8   52e6     movf    0xe6, 0x1, 0x0   	MOVF	POSTINC1, F
                                           ;	.line	391; F:/OneDrive/API_PINGUINO_18F4550/API/pinguino/libraries/lcdlib.c	lcd_command(LCD_CLEARDISPLAY);  // clear display, set cursor position to zero
002dba   0e01     movlw   0x01             	MOVLW	0x01
002dbc   6ee5     movwf   0xe5, 0x0        	MOVWF	POSTDEC1
002dbe   ecce     call    0x003b9c, 0x0call    0x003b9c, 0x0 	CALL	_lcd_command
002dc0   f01d
002dc2   52e6     movf    0xe6, 0x1, 0x0   	MOVF	POSTINC1, F
                                           ;	.line	392; F:/OneDrive/API_PINGUINO_18F4550/API/pinguino/libraries/lcdlib.c	Delayms(2);
002dc4   6ae5     clrf    0xe5, 0x0        	CLRF	POSTDEC1
002dc6   0e02     movlw   0x02             	MOVLW	0x02
002dc8   6ee5     movwf   0xe5, 0x0        	MOVWF	POSTDEC1
002dca   ec92     call    0x003324, 0x0call    0x003324, 0x0 	CALL	_Delayms
002dcc   f019
002dce   52e6     movf    0xe6, 0x1, 0x0   	MOVF	POSTINC1, F
002dd0   52e6     movf    0xe6, 0x1, 0x0   	MOVF	POSTINC1, F
                                           ;	.line	395; F:/OneDrive/API_PINGUINO_18F4550/API/pinguino/libraries/lcdlib.c	_displaymode = LCD_ENTRYLEFT | LCD_ENTRYSHIFTDECREMENT;
002dd2   0e02     movlw   0x02             	MOVLW	0x02
002dd4   0102     movlb   0x2              	BANKSEL	__displaymode
002dd6   6f9a     movwf   0x9a, 0x1        	MOVWF	__displaymode, B
                                           ;	.line	397; F:/OneDrive/API_PINGUINO_18F4550/API/pinguino/libraries/lcdlib.c	lcd_command(LCD_ENTRYMODESET | _displaymode);
002dd8   0e06     movlw   0x06             	MOVLW	0x06
002dda   6ee5     movwf   0xe5, 0x0        	MOVWF	POSTDEC1
002ddc   ecce     call    0x003b9c, 0x0call    0x003b9c, 0x0 	CALL	_lcd_command
002dde   f01d
002de0   52e6     movf    0xe6, 0x1, 0x0   	MOVF	POSTINC1, F
002de2   cfe4     movff   0xfe4, 0x001     	MOVFF	PREINC1, r0x01
002de4   f001
002de6   cfe4     movff   0xfe4, 0x000     	MOVFF	PREINC1, r0x00
002de8   f000
002dea   cfe4     movff   0xfe4, 0xfd9     	MOVFF	PREINC1, FSR2L
002dec   ffd9
002dee   0012     return  0x0              	RETURN	
                                           
                                           ; ; Starting pCode block
                                           S_main__lcd_blink	code
                                           _lcd_blink:
003cae   0102     movlb   0x2              	BANKSEL	__displaycontrol
                                           ;	.line	275; F:/OneDrive/API_PINGUINO_18F4550/API/pinguino/libraries/lcdlib.c	_displaycontrol |= LCD_BLINKON;
003cb0   81a1     bsf     0xa1, 0x0, 0x1   	BSF	__displaycontrol, 0, B
                                           ;	.line	276; F:/OneDrive/API_PINGUINO_18F4550/API/pinguino/libraries/lcdlib.c	lcd_command(LCD_DISPLAYCONTROL | _displaycontrol);
003cb2   0e08     movlw   0x08             	MOVLW	0x08
                                           ; removed redundant BANKSEL
003cb4   11a1     iorwf   0xa1, 0x0, 0x1   	IORWF	__displaycontrol, W, B
                                           ; #	MOVWF	r0x00
                                           ; #	MOVF	r0x00, W
003cb6   6ee5     movwf   0xe5, 0x0        	MOVWF	POSTDEC1
003cb8   ecce     call    0x003b9c, 0x0call    0x003b9c, 0x0 	CALL	_lcd_command
003cba   f01d
003cbc   52e6     movf    0xe6, 0x1, 0x0   	MOVF	POSTINC1, F
003cbe   0012     return  0x0              	RETURN	
                                           
                                           ; ; Starting pCode block
                                           S_main__lcd_display	code
                                           _lcd_display:
003cc0   0102     movlb   0x2              	BANKSEL	__displaycontrol
                                           ;	.line	241; F:/OneDrive/API_PINGUINO_18F4550/API/pinguino/libraries/lcdlib.c	_displaycontrol |= LCD_DISPLAYON;
003cc2   85a1     bsf     0xa1, 0x2, 0x1   	BSF	__displaycontrol, 2, B
                                           ;	.line	242; F:/OneDrive/API_PINGUINO_18F4550/API/pinguino/libraries/lcdlib.c	lcd_command(LCD_DISPLAYCONTROL | _displaycontrol);
003cc4   0e08     movlw   0x08             	MOVLW	0x08
                                           ; removed redundant BANKSEL
003cc6   11a1     iorwf   0xa1, 0x0, 0x1   	IORWF	__displaycontrol, W, B
                                           ; #	MOVWF	r0x00
                                           ; #	MOVF	r0x00, W
003cc8   6ee5     movwf   0xe5, 0x0        	MOVWF	POSTDEC1
003cca   ecce     call    0x003b9c, 0x0call    0x003b9c, 0x0 	CALL	_lcd_command
003ccc   f01d
003cce   52e6     movf    0xe6, 0x1, 0x0   	MOVF	POSTINC1, F
003cd0   0012     return  0x0              	RETURN	
                                           
                                           ; ; Starting pCode block
                                           S_main__lcd_noDisplay	code
                                           _lcd_noDisplay:
                                           ;	.line	231; F:/OneDrive/API_PINGUINO_18F4550/API/pinguino/libraries/lcdlib.c	void lcd_noDisplay()
003c38   c000     movff   0x000, 0xfe5     	MOVFF	r0x00, POSTDEC1
003c3a   ffe5
003c3c   0102     movlb   0x2              	BANKSEL	__displaycontrol
                                           ;	.line	233; F:/OneDrive/API_PINGUINO_18F4550/API/pinguino/libraries/lcdlib.c	_displaycontrol &= ~LCD_DISPLAYON;
003c3e   51a1     movf    0xa1, 0x0, 0x1   	MOVF	__displaycontrol, W, B
003c40   6e00     movwf   0x00, 0x0        	MOVWF	r0x00
003c42   0efb     movlw   0xfb             	MOVLW	0xfb
003c44   1400     andwf   0x00, 0x0, 0x0   	ANDWF	r0x00, W
                                           ; removed redundant BANKSEL
003c46   6fa1     movwf   0xa1, 0x1        	MOVWF	__displaycontrol, B
                                           ;	.line	234; F:/OneDrive/API_PINGUINO_18F4550/API/pinguino/libraries/lcdlib.c	lcd_command(LCD_DISPLAYCONTROL | _displaycontrol);
003c48   0e08     movlw   0x08             	MOVLW	0x08
                                           ; removed redundant BANKSEL
003c4a   11a1     iorwf   0xa1, 0x0, 0x1   	IORWF	__displaycontrol, W, B
                                           ; #	MOVWF	r0x00
                                           ; #	MOVF	r0x00, W
003c4c   6ee5     movwf   0xe5, 0x0        	MOVWF	POSTDEC1
003c4e   ecce     call    0x003b9c, 0x0call    0x003b9c, 0x0 	CALL	_lcd_command
003c50   f01d
003c52   52e6     movf    0xe6, 0x1, 0x0   	MOVF	POSTINC1, F
003c54   cfe4     movff   0xfe4, 0x000     	MOVFF	PREINC1, r0x00
003c56   f000
003c58   0012     return  0x0              	RETURN	
                                           
                                           ; ; Starting pCode block
                                           S_main__lcd_clear	code
                                           _lcd_clear:
                                           ;	.line	223; F:/OneDrive/API_PINGUINO_18F4550/API/pinguino/libraries/lcdlib.c	lcd_command(LCD_CLEARDISPLAY);  // clear display, set cursor position to zero
003c7c   0e01     movlw   0x01             	MOVLW	0x01
003c7e   6ee5     movwf   0xe5, 0x0        	MOVWF	POSTDEC1
003c80   ecce     call    0x003b9c, 0x0call    0x003b9c, 0x0 	CALL	_lcd_command
003c82   f01d
003c84   52e6     movf    0xe6, 0x1, 0x0   	MOVF	POSTINC1, F
                                           ;	.line	224; F:/OneDrive/API_PINGUINO_18F4550/API/pinguino/libraries/lcdlib.c	Delayms(2);									// Wait for more than 4.1 ms
003c86   6ae5     clrf    0xe5, 0x0        	CLRF	POSTDEC1
003c88   0e02     movlw   0x02             	MOVLW	0x02
003c8a   6ee5     movwf   0xe5, 0x0        	MOVWF	POSTDEC1
003c8c   ec92     call    0x003324, 0x0call    0x003324, 0x0 	CALL	_Delayms
003c8e   f019
003c90   52e6     movf    0xe6, 0x1, 0x0   	MOVF	POSTINC1, F
003c92   52e6     movf    0xe6, 0x1, 0x0   	MOVF	POSTINC1, F
003c94   0012     return  0x0              	RETURN	
                                           
                                           ; ; Starting pCode block
                                           S_main__lcd_print	code
                                           _lcd_print:
                                           ;	.line	122; F:/OneDrive/API_PINGUINO_18F4550/API/pinguino/libraries/lcdlib.c	void lcd_print(char *string)
0035c4   cfd9     movff   0xfd9, 0xfe5     	MOVFF	FSR2L, POSTDEC1
0035c6   ffe5
0035c8   cfe1     movff   0xfe1, 0xfd9     	MOVFF	FSR1L, FSR2L
0035ca   ffd9
0035cc   c000     movff   0x000, 0xfe5     	MOVFF	r0x00, POSTDEC1
0035ce   ffe5
0035d0   c001     movff   0x001, 0xfe5     	MOVFF	r0x01, POSTDEC1
0035d2   ffe5
0035d4   c002     movff   0x002, 0xfe5     	MOVFF	r0x02, POSTDEC1
0035d6   ffe5
0035d8   c003     movff   0x003, 0xfe5     	MOVFF	r0x03, POSTDEC1
0035da   ffe5
0035dc   c004     movff   0x004, 0xfe5     	MOVFF	r0x04, POSTDEC1
0035de   ffe5
0035e0   c005     movff   0x005, 0xfe5     	MOVFF	r0x05, POSTDEC1
0035e2   ffe5
0035e4   0e02     movlw   0x02             	MOVLW	0x02
0035e6   cfdb     movff   0xfdb, 0x000     	MOVFF	PLUSW2, r0x00
0035e8   f000
0035ea   0e03     movlw   0x03             	MOVLW	0x03
0035ec   cfdb     movff   0xfdb, 0x001     	MOVFF	PLUSW2, r0x01
0035ee   f001
0035f0   0e04     movlw   0x04             	MOVLW	0x04
0035f2   cfdb     movff   0xfdb, 0x002     	MOVFF	PLUSW2, r0x02
0035f4   f002
                                           ;	.line	125; F:/OneDrive/API_PINGUINO_18F4550/API/pinguino/libraries/lcdlib.c	for( i=0; string[i]; i++)
0035f6   6a03     clrf    0x03, 0x0        	CLRF	r0x03
                                           _00550_DS_:
0035f8   5003     movf    0x03, 0x0, 0x0   	MOVF	r0x03, W
0035fa   2400     addwf   0x00, 0x0, 0x0   	ADDWF	r0x00, W
0035fc   6e04     movwf   0x04, 0x0        	MOVWF	r0x04
0035fe   6ae8     clrf    0xe8, 0x0        	CLRF	WREG
003600   2001     addwfc  0x01, 0x0, 0x0   	ADDWFC	r0x01, W
003602   6e05     movwf   0x05, 0x0        	MOVWF	r0x05
003604   6ae8     clrf    0xe8, 0x0        	CLRF	WREG
003606   2002     addwfc  0x02, 0x0, 0x0   	ADDWFC	r0x02, W
003608   c004     movff   0x004, 0xfe9     	MOVFF	r0x04, FSR0L
00360a   ffe9
00360c   c005     movff   0x005, 0xff3     	MOVFF	r0x05, PRODL
00360e   fff3
003610   ec29     call    0x000052, 0x0call    0x000052, 0x0 	CALL	__gptrget1
003612   f000
003614   6e04     movwf   0x04, 0x0        	MOVWF	r0x04
003616   5004     movf    0x04, 0x0, 0x0   	MOVF	r0x04, W
003618   e007     bz      0x003628         	BZ	_00552_DS_
                                           ;	.line	126; F:/OneDrive/API_PINGUINO_18F4550/API/pinguino/libraries/lcdlib.c	lcd_write(string[i]);
00361a   5004     movf    0x04, 0x0, 0x0   	MOVF	r0x04, W
00361c   6ee5     movwf   0xe5, 0x0        	MOVWF	POSTDEC1
00361e   ecb8     call    0x003b70, 0x0call    0x003b70, 0x0 	CALL	_lcd_write
003620   f01d
003622   52e6     movf    0xe6, 0x1, 0x0   	MOVF	POSTINC1, F
                                           ;	.line	125; F:/OneDrive/API_PINGUINO_18F4550/API/pinguino/libraries/lcdlib.c	for( i=0; string[i]; i++)
003624   2a03     incf    0x03, 0x1, 0x0   	INCF	r0x03, F
003626   d7e8     bra     0x0035f8         	BRA	_00550_DS_
                                           _00552_DS_:
003628   cfe4     movff   0xfe4, 0x005     	MOVFF	PREINC1, r0x05
00362a   f005
00362c   cfe4     movff   0xfe4, 0x004     	MOVFF	PREINC1, r0x04
00362e   f004
003630   cfe4     movff   0xfe4, 0x003     	MOVFF	PREINC1, r0x03
003632   f003
003634   cfe4     movff   0xfe4, 0x002     	MOVFF	PREINC1, r0x02
003636   f002
003638   cfe4     movff   0xfe4, 0x001     	MOVFF	PREINC1, r0x01
00363a   f001
00363c   cfe4     movff   0xfe4, 0x000     	MOVFF	PREINC1, r0x00
00363e   f000
003640   cfe4     movff   0xfe4, 0xfd9     	MOVFF	PREINC1, FSR2L
003642   ffd9
003644   0012     return  0x0              	RETURN	
                                           
                                           ; ; Starting pCode block
                                           S_main__lcd_setCursor	code
                                           _lcd_setCursor:
                                           ;	.line	97; F:/OneDrive/API_PINGUINO_18F4550/API/pinguino/libraries/lcdlib.c	void lcd_setCursor(u8 col, u8 row)
003746   cfd9     movff   0xfd9, 0xfe5     	MOVFF	FSR2L, POSTDEC1
003748   ffe5
00374a   cfe1     movff   0xfe1, 0xfd9     	MOVFF	FSR1L, FSR2L
00374c   ffd9
00374e   c000     movff   0x000, 0xfe5     	MOVFF	r0x00, POSTDEC1
003750   ffe5
003752   c001     movff   0x001, 0xfe5     	MOVFF	r0x01, POSTDEC1
003754   ffe5
003756   c002     movff   0x002, 0xfe5     	MOVFF	r0x02, POSTDEC1
003758   ffe5
00375a   0e02     movlw   0x02             	MOVLW	0x02
00375c   cfdb     movff   0xfdb, 0x000     	MOVFF	PLUSW2, r0x00
00375e   f000
003760   0e03     movlw   0x03             	MOVLW	0x03
003762   cfdb     movff   0xfdb, 0x001     	MOVFF	PLUSW2, r0x01
003764   f001
003766   0102     movlb   0x2              	BANKSEL	_lcd_setCursor_row_offsets_1_104
                                           ;	.line	99; F:/OneDrive/API_PINGUINO_18F4550/API/pinguino/libraries/lcdlib.c	u8 row_offsets[] = { 0x00, 0x40, 0x14, 0x54 };
003768   6b90     clrf    0x90, 0x1        	CLRF	_lcd_setCursor_row_offsets_1_104, B
00376a   0e40     movlw   0x40             	MOVLW	0x40
                                           ; removed redundant BANKSEL
00376c   6f91     movwf   0x91, 0x1        	MOVWF	(_lcd_setCursor_row_offsets_1_104 + 1), B
00376e   0e14     movlw   0x14             	MOVLW	0x14
                                           ; removed redundant BANKSEL
003770   6f92     movwf   0x92, 0x1        	MOVWF	(_lcd_setCursor_row_offsets_1_104 + 2), B
003772   0e54     movlw   0x54             	MOVLW	0x54
                                           ; removed redundant BANKSEL
003774   6f93     movwf   0x93, 0x1        	MOVWF	(_lcd_setCursor_row_offsets_1_104 + 3), B
003776   0102     movlb   0x2              	BANKSEL	__numlines
                                           ;	.line	106; F:/OneDrive/API_PINGUINO_18F4550/API/pinguino/libraries/lcdlib.c	if (_numlines==1) {
003778   51a0     movf    0xa0, 0x0, 0x1   	MOVF	__numlines, W, B
00377a   0a01     xorlw   0x01             	XORLW	0x01
00377c   e107     bnz     0x00378c         	BNZ	_00536_DS_
                                           ;	.line	107; F:/OneDrive/API_PINGUINO_18F4550/API/pinguino/libraries/lcdlib.c	row_offsets[1] = 0x14;
00377e   0e14     movlw   0x14             	MOVLW	0x14
003780   0102     movlb   0x2              	BANKSEL	(_lcd_setCursor_row_offsets_1_104 + 1)
003782   6f91     movwf   0x91, 0x1        	MOVWF	(_lcd_setCursor_row_offsets_1_104 + 1), B
                                           ;	.line	108; F:/OneDrive/API_PINGUINO_18F4550/API/pinguino/libraries/lcdlib.c	row_offsets[2] = 0x28;
003784   0e28     movlw   0x28             	MOVLW	0x28
                                           ; removed redundant BANKSEL
003786   6f92     movwf   0x92, 0x1        	MOVWF	(_lcd_setCursor_row_offsets_1_104 + 2), B
                                           ;	.line	109; F:/OneDrive/API_PINGUINO_18F4550/API/pinguino/libraries/lcdlib.c	row_offsets[3] = 0x3C;
003788   0e3c     movlw   0x3c             	MOVLW	0x3c
                                           ; removed redundant BANKSEL
00378a   6f93     movwf   0x93, 0x1        	MOVWF	(_lcd_setCursor_row_offsets_1_104 + 3), B
                                           _00536_DS_:
                                           ;	.line	116; F:/OneDrive/API_PINGUINO_18F4550/API/pinguino/libraries/lcdlib.c	lcd_command(LCD_SETDDRAMADDR | (col + row_offsets[row]));
00378c   6a02     clrf    0x02, 0x0        	CLRF	r0x02
00378e   0e90     movlw   0x90             	MOVLW	LOW(_lcd_setCursor_row_offsets_1_104)
003790   2601     addwf   0x01, 0x1, 0x0   	ADDWF	r0x01, F
003792   0e02     movlw   0x02             	MOVLW	HIGH(_lcd_setCursor_row_offsets_1_104)
003794   2202     addwfc  0x02, 0x1, 0x0   	ADDWFC	r0x02, F
003796   c001     movff   0x001, 0xfe9     	MOVFF	r0x01, FSR0L
003798   ffe9
00379a   c002     movff   0x002, 0xfea     	MOVFF	r0x02, FSR0H
00379c   ffea
00379e   cfef     movff   0xfef, 0x001     	MOVFF	INDF0, r0x01
0037a0   f001
0037a2   5001     movf    0x01, 0x0, 0x0   	MOVF	r0x01, W
0037a4   2600     addwf   0x00, 0x1, 0x0   	ADDWF	r0x00, F
0037a6   8e00     bsf     0x00, 0x7, 0x0   	BSF	r0x00, 7
0037a8   5000     movf    0x00, 0x0, 0x0   	MOVF	r0x00, W
0037aa   6ee5     movwf   0xe5, 0x0        	MOVWF	POSTDEC1
0037ac   ecce     call    0x003b9c, 0x0call    0x003b9c, 0x0 	CALL	_lcd_command
0037ae   f01d
0037b0   52e6     movf    0xe6, 0x1, 0x0   	MOVF	POSTINC1, F
0037b2   cfe4     movff   0xfe4, 0x002     	MOVFF	PREINC1, r0x02
0037b4   f002
0037b6   cfe4     movff   0xfe4, 0x001     	MOVFF	PREINC1, r0x01
0037b8   f001
0037ba   cfe4     movff   0xfe4, 0x000     	MOVFF	PREINC1, r0x00
0037bc   f000
0037be   cfe4     movff   0xfe4, 0xfd9     	MOVFF	PREINC1, FSR2L
0037c0   ffd9
0037c2   0012     return  0x0              	RETURN	
                                           
                                           ; ; Starting pCode block
                                           S_main__lcd_command	code
                                           _lcd_command:
                                           ;	.line	90; F:/OneDrive/API_PINGUINO_18F4550/API/pinguino/libraries/lcdlib.c	void lcd_command(u8 value)
003b9c   cfd9     movff   0xfd9, 0xfe5     	MOVFF	FSR2L, POSTDEC1
003b9e   ffe5
003ba0   cfe1     movff   0xfe1, 0xfd9     	MOVFF	FSR1L, FSR2L
003ba2   ffd9
003ba4   c000     movff   0x000, 0xfe5     	MOVFF	r0x00, POSTDEC1
003ba6   ffe5
003ba8   0e02     movlw   0x02             	MOVLW	0x02
003baa   cfdb     movff   0xfdb, 0x000     	MOVFF	PLUSW2, r0x00
003bac   f000
                                           ;	.line	92; F:/OneDrive/API_PINGUINO_18F4550/API/pinguino/libraries/lcdlib.c	lcd_send(value, LOW);
003bae   6ae5     clrf    0xe5, 0x0        	CLRF	POSTDEC1
003bb0   5000     movf    0x00, 0x0, 0x0   	MOVF	r0x00, W
003bb2   6ee5     movwf   0xe5, 0x0        	MOVWF	POSTDEC1
003bb4   ec4b     call    0x003896, 0x0call    0x003896, 0x0 	CALL	_lcd_send
003bb6   f01c
003bb8   52e6     movf    0xe6, 0x1, 0x0   	MOVF	POSTINC1, F
003bba   52e6     movf    0xe6, 0x1, 0x0   	MOVF	POSTINC1, F
003bbc   cfe4     movff   0xfe4, 0x000     	MOVFF	PREINC1, r0x00
003bbe   f000
003bc0   cfe4     movff   0xfe4, 0xfd9     	MOVFF	PREINC1, FSR2L
003bc2   ffd9
003bc4   0012     return  0x0              	RETURN	
                                           
                                           ; ; Starting pCode block
                                           S_main__lcd_write	code
                                           _lcd_write:
                                           ;	.line	84; F:/OneDrive/API_PINGUINO_18F4550/API/pinguino/libraries/lcdlib.c	void lcd_write(u8 value)
003b70   cfd9     movff   0xfd9, 0xfe5     	MOVFF	FSR2L, POSTDEC1
003b72   ffe5
003b74   cfe1     movff   0xfe1, 0xfd9     	MOVFF	FSR1L, FSR2L
003b76   ffd9
003b78   c000     movff   0x000, 0xfe5     	MOVFF	r0x00, POSTDEC1
003b7a   ffe5
003b7c   0e02     movlw   0x02             	MOVLW	0x02
003b7e   cfdb     movff   0xfdb, 0x000     	MOVFF	PLUSW2, r0x00
003b80   f000
                                           ;	.line	86; F:/OneDrive/API_PINGUINO_18F4550/API/pinguino/libraries/lcdlib.c	lcd_send(value, HIGH);
003b82   0e01     movlw   0x01             	MOVLW	0x01
003b84   6ee5     movwf   0xe5, 0x0        	MOVWF	POSTDEC1
003b86   5000     movf    0x00, 0x0, 0x0   	MOVF	r0x00, W
003b88   6ee5     movwf   0xe5, 0x0        	MOVWF	POSTDEC1
003b8a   ec4b     call    0x003896, 0x0call    0x003896, 0x0 	CALL	_lcd_send
003b8c   f01c
003b8e   52e6     movf    0xe6, 0x1, 0x0   	MOVF	POSTINC1, F
003b90   52e6     movf    0xe6, 0x1, 0x0   	MOVF	POSTINC1, F
003b92   cfe4     movff   0xfe4, 0x000     	MOVFF	PREINC1, r0x00
003b94   f000
003b96   cfe4     movff   0xfe4, 0xfd9     	MOVFF	PREINC1, FSR2L
003b98   ffd9
003b9a   0012     return  0x0              	RETURN	
                                           
                                           ; ; Starting pCode block
                                           S_main__lcd_send	code
                                           _lcd_send:
                                           ;	.line	68; F:/OneDrive/API_PINGUINO_18F4550/API/pinguino/libraries/lcdlib.c	void lcd_send(u8 value, u8 mode)
003896   cfd9     movff   0xfd9, 0xfe5     	MOVFF	FSR2L, POSTDEC1
003898   ffe5
00389a   cfe1     movff   0xfe1, 0xfd9     	MOVFF	FSR1L, FSR2L
00389c   ffd9
00389e   c000     movff   0x000, 0xfe5     	MOVFF	r0x00, POSTDEC1
0038a0   ffe5
0038a2   c001     movff   0x001, 0xfe5     	MOVFF	r0x01, POSTDEC1
0038a4   ffe5
0038a6   0e02     movlw   0x02             	MOVLW	0x02
0038a8   cfdb     movff   0xfdb, 0x000     	MOVFF	PLUSW2, r0x00
0038aa   f000
0038ac   0e03     movlw   0x03             	MOVLW	0x03
0038ae   cfdb     movff   0xfdb, 0x001     	MOVFF	PLUSW2, r0x01
0038b0   f001
                                           ;	.line	70; F:/OneDrive/API_PINGUINO_18F4550/API/pinguino/libraries/lcdlib.c	digitalwrite(_rs_pin, mode);
0038b2   5001     movf    0x01, 0x0, 0x0   	MOVF	r0x01, W
0038b4   6ee5     movwf   0xe5, 0x0        	MOVWF	POSTDEC1
0038b6   0102     movlb   0x2              	BANKSEL	__rs_pin
0038b8   5189     movf    0x89, 0x0, 0x1   	MOVF	__rs_pin, W, B
0038ba   6ee5     movwf   0xe5, 0x0        	MOVWF	POSTDEC1
0038bc   ec29     call    0x002452, 0x0call    0x002452, 0x0 	CALL	_digitalwrite
0038be   f012
0038c0   52e6     movf    0xe6, 0x1, 0x0   	MOVF	POSTINC1, F
0038c2   52e6     movf    0xe6, 0x1, 0x0   	MOVF	POSTINC1, F
0038c4   0102     movlb   0x2              	BANKSEL	__displayfunction
                                           ;	.line	72; F:/OneDrive/API_PINGUINO_18F4550/API/pinguino/libraries/lcdlib.c	if (_displayfunction & LCD_8BITMODE)
0038c6   a99f     btfss   0x9f, 0x4, 0x1   	BTFSS	__displayfunction, 4, B
0038c8   d006     bra     0x0038d6         	BRA	_00513_DS_
                                           ;	.line	74; F:/OneDrive/API_PINGUINO_18F4550/API/pinguino/libraries/lcdlib.c	lcd_write8bits(value); 
0038ca   5000     movf    0x00, 0x0, 0x0   	MOVF	r0x00, W
0038cc   6ee5     movwf   0xe5, 0x0        	MOVWF	POSTDEC1
0038ce   ec23     call    0x003646, 0x0call    0x003646, 0x0 	CALL	_lcd_write8bits
0038d0   f01b
0038d2   52e6     movf    0xe6, 0x1, 0x0   	MOVF	POSTINC1, F
0038d4   d00b     bra     0x0038ec         	BRA	_00515_DS_
                                           _00513_DS_:
                                           ;	.line	78; F:/OneDrive/API_PINGUINO_18F4550/API/pinguino/libraries/lcdlib.c	lcd_write4bits(value >> 4);	// Upper 4 bits first
0038d6   3800     swapf   0x00, 0x0, 0x0   	SWAPF	r0x00, W
0038d8   0b0f     andlw   0x0f             	ANDLW	0x0f
                                           ; #	MOVWF	r0x01
                                           ; #	MOVF	r0x01, W
0038da   6ee5     movwf   0xe5, 0x0        	MOVWF	POSTDEC1
0038dc   ec63     call    0x0036c6, 0x0call    0x0036c6, 0x0 	CALL	_lcd_write4bits
0038de   f01b
0038e0   52e6     movf    0xe6, 0x1, 0x0   	MOVF	POSTINC1, F
                                           ;	.line	79; F:/OneDrive/API_PINGUINO_18F4550/API/pinguino/libraries/lcdlib.c	lcd_write4bits(value);	    // Lower 4 bits second
0038e2   5000     movf    0x00, 0x0, 0x0   	MOVF	r0x00, W
0038e4   6ee5     movwf   0xe5, 0x0        	MOVWF	POSTDEC1
0038e6   ec63     call    0x0036c6, 0x0call    0x0036c6, 0x0 	CALL	_lcd_write4bits
0038e8   f01b
0038ea   52e6     movf    0xe6, 0x1, 0x0   	MOVF	POSTINC1, F
                                           _00515_DS_:
0038ec   cfe4     movff   0xfe4, 0x001     	MOVFF	PREINC1, r0x01
0038ee   f001
0038f0   cfe4     movff   0xfe4, 0x000     	MOVFF	PREINC1, r0x00
0038f2   f000
0038f4   cfe4     movff   0xfe4, 0xfd9     	MOVFF	PREINC1, FSR2L
0038f6   ffd9
0038f8   0012     return  0x0              	RETURN	
                                           
                                           ; ; Starting pCode block
                                           S_main__lcd_write8bits	code
                                           _lcd_write8bits:
                                           ;	.line	59; F:/OneDrive/API_PINGUINO_18F4550/API/pinguino/libraries/lcdlib.c	void lcd_write8bits(u8 value)
003646   cfd9     movff   0xfd9, 0xfe5     	MOVFF	FSR2L, POSTDEC1
003648   ffe5
00364a   cfe1     movff   0xfe1, 0xfd9     	MOVFF	FSR1L, FSR2L
00364c   ffd9
00364e   c000     movff   0x000, 0xfe5     	MOVFF	r0x00, POSTDEC1
003650   ffe5
003652   c001     movff   0x001, 0xfe5     	MOVFF	r0x01, POSTDEC1
003654   ffe5
003656   c002     movff   0x002, 0xfe5     	MOVFF	r0x02, POSTDEC1
003658   ffe5
00365a   c003     movff   0x003, 0xfe5     	MOVFF	r0x03, POSTDEC1
00365c   ffe5
00365e   0e02     movlw   0x02             	MOVLW	0x02
003660   cfdb     movff   0xfdb, 0x000     	MOVFF	PLUSW2, r0x00
003662   f000
                                           ;	.line	62; F:/OneDrive/API_PINGUINO_18F4550/API/pinguino/libraries/lcdlib.c	for (i = 0; i < 8; i++)
003664   6a01     clrf    0x01, 0x0        	CLRF	r0x01
                                           _00493_DS_:
                                           ;	.line	63; F:/OneDrive/API_PINGUINO_18F4550/API/pinguino/libraries/lcdlib.c	digitalwrite(_data_pins[i], (value >> i) & 0x01);
003666   0e80     movlw   0x80             	MOVLW	LOW(__data_pins)
003668   2401     addwf   0x01, 0x0, 0x0   	ADDWF	r0x01, W
00366a   6e02     movwf   0x02, 0x0        	MOVWF	r0x02
00366c   6a03     clrf    0x03, 0x0        	CLRF	r0x03
00366e   0e02     movlw   0x02             	MOVLW	HIGH(__data_pins)
003670   2203     addwfc  0x03, 0x1, 0x0   	ADDWFC	r0x03, F
003672   c002     movff   0x002, 0xfe9     	MOVFF	r0x02, FSR0L
003674   ffe9
003676   c003     movff   0x003, 0xfea     	MOVFF	r0x03, FSR0H
003678   ffea
00367a   cfef     movff   0xfef, 0x002     	MOVFF	INDF0, r0x02
00367c   f002
00367e   c000     movff   0x000, 0x003     	MOVFF	r0x00, r0x03
003680   f003
003682   5001     movf    0x01, 0x0, 0x0   	MOVF	r0x01, W
003684   e005     bz      0x003690         	BZ	_00504_DS_
003686   6ce8     negf    0xe8, 0x0        	NEGF	WREG
003688   90d8     bcf     0xd8, 0x0, 0x0   	BCF	STATUS, 0
                                           _00505_DS_:
00368a   3203     rrcf    0x03, 0x1, 0x0   	RRCF	r0x03, F
00368c   0f01     addlw   0x01             	ADDLW	0x01
00368e   e3fd     bnc     0x00368a         	BNC	_00505_DS_
                                           _00504_DS_:
003690   0e01     movlw   0x01             	MOVLW	0x01
003692   1603     andwf   0x03, 0x1, 0x0   	ANDWF	r0x03, F
003694   5003     movf    0x03, 0x0, 0x0   	MOVF	r0x03, W
003696   6ee5     movwf   0xe5, 0x0        	MOVWF	POSTDEC1
003698   5002     movf    0x02, 0x0, 0x0   	MOVF	r0x02, W
00369a   6ee5     movwf   0xe5, 0x0        	MOVWF	POSTDEC1
00369c   ec29     call    0x002452, 0x0call    0x002452, 0x0 	CALL	_digitalwrite
00369e   f012
0036a0   52e6     movf    0xe6, 0x1, 0x0   	MOVF	POSTINC1, F
0036a2   52e6     movf    0xe6, 0x1, 0x0   	MOVF	POSTINC1, F
                                           ;	.line	62; F:/OneDrive/API_PINGUINO_18F4550/API/pinguino/libraries/lcdlib.c	for (i = 0; i < 8; i++)
0036a4   2a01     incf    0x01, 0x1, 0x0   	INCF	r0x01, F
0036a6   0e08     movlw   0x08             	MOVLW	0x08
0036a8   5c01     subwf   0x01, 0x0, 0x0   	SUBWF	r0x01, W
0036aa   e3dd     bnc     0x003666         	BNC	_00493_DS_
                                           ;	.line	64; F:/OneDrive/API_PINGUINO_18F4550/API/pinguino/libraries/lcdlib.c	lcd_pulseEnable();
0036ac   ec0a     call    0x003c14, 0x0call    0x003c14, 0x0 	CALL	_lcd_pulseEnable
0036ae   f01e
0036b0   cfe4     movff   0xfe4, 0x003     	MOVFF	PREINC1, r0x03
0036b2   f003
0036b4   cfe4     movff   0xfe4, 0x002     	MOVFF	PREINC1, r0x02
0036b6   f002
0036b8   cfe4     movff   0xfe4, 0x001     	MOVFF	PREINC1, r0x01
0036ba   f001
0036bc   cfe4     movff   0xfe4, 0x000     	MOVFF	PREINC1, r0x00
0036be   f000
0036c0   cfe4     movff   0xfe4, 0xfd9     	MOVFF	PREINC1, FSR2L
0036c2   ffd9
0036c4   0012     return  0x0              	RETURN	
                                           
                                           ; ; Starting pCode block
                                           S_main__lcd_write4bits	code
                                           _lcd_write4bits:
                                           ;	.line	50; F:/OneDrive/API_PINGUINO_18F4550/API/pinguino/libraries/lcdlib.c	void lcd_write4bits(u8 value)
0036c6   cfd9     movff   0xfd9, 0xfe5     	MOVFF	FSR2L, POSTDEC1
0036c8   ffe5
0036ca   cfe1     movff   0xfe1, 0xfd9     	MOVFF	FSR1L, FSR2L
0036cc   ffd9
0036ce   c000     movff   0x000, 0xfe5     	MOVFF	r0x00, POSTDEC1
0036d0   ffe5
0036d2   c001     movff   0x001, 0xfe5     	MOVFF	r0x01, POSTDEC1
0036d4   ffe5
0036d6   c002     movff   0x002, 0xfe5     	MOVFF	r0x02, POSTDEC1
0036d8   ffe5
0036da   c003     movff   0x003, 0xfe5     	MOVFF	r0x03, POSTDEC1
0036dc   ffe5
0036de   0e02     movlw   0x02             	MOVLW	0x02
0036e0   cfdb     movff   0xfdb, 0x000     	MOVFF	PLUSW2, r0x00
0036e2   f000
                                           ;	.line	53; F:/OneDrive/API_PINGUINO_18F4550/API/pinguino/libraries/lcdlib.c	for (i = 0; i < 4; i++)
0036e4   6a01     clrf    0x01, 0x0        	CLRF	r0x01
                                           _00473_DS_:
                                           ;	.line	54; F:/OneDrive/API_PINGUINO_18F4550/API/pinguino/libraries/lcdlib.c	digitalwrite(_data_pins[i], (value >> i) & 0x01);
0036e6   0e80     movlw   0x80             	MOVLW	LOW(__data_pins)
0036e8   2401     addwf   0x01, 0x0, 0x0   	ADDWF	r0x01, W
0036ea   6e02     movwf   0x02, 0x0        	MOVWF	r0x02
0036ec   6a03     clrf    0x03, 0x0        	CLRF	r0x03
0036ee   0e02     movlw   0x02             	MOVLW	HIGH(__data_pins)
0036f0   2203     addwfc  0x03, 0x1, 0x0   	ADDWFC	r0x03, F
0036f2   c002     movff   0x002, 0xfe9     	MOVFF	r0x02, FSR0L
0036f4   ffe9
0036f6   c003     movff   0x003, 0xfea     	MOVFF	r0x03, FSR0H
0036f8   ffea
0036fa   cfef     movff   0xfef, 0x002     	MOVFF	INDF0, r0x02
0036fc   f002
0036fe   c000     movff   0x000, 0x003     	MOVFF	r0x00, r0x03
003700   f003
003702   5001     movf    0x01, 0x0, 0x0   	MOVF	r0x01, W
003704   e005     bz      0x003710         	BZ	_00484_DS_
003706   6ce8     negf    0xe8, 0x0        	NEGF	WREG
003708   90d8     bcf     0xd8, 0x0, 0x0   	BCF	STATUS, 0
                                           _00485_DS_:
00370a   3203     rrcf    0x03, 0x1, 0x0   	RRCF	r0x03, F
00370c   0f01     addlw   0x01             	ADDLW	0x01
00370e   e3fd     bnc     0x00370a         	BNC	_00485_DS_
                                           _00484_DS_:
003710   0e01     movlw   0x01             	MOVLW	0x01
003712   1603     andwf   0x03, 0x1, 0x0   	ANDWF	r0x03, F
003714   5003     movf    0x03, 0x0, 0x0   	MOVF	r0x03, W
003716   6ee5     movwf   0xe5, 0x0        	MOVWF	POSTDEC1
003718   5002     movf    0x02, 0x0, 0x0   	MOVF	r0x02, W
00371a   6ee5     movwf   0xe5, 0x0        	MOVWF	POSTDEC1
00371c   ec29     call    0x002452, 0x0call    0x002452, 0x0 	CALL	_digitalwrite
00371e   f012
003720   52e6     movf    0xe6, 0x1, 0x0   	MOVF	POSTINC1, F
003722   52e6     movf    0xe6, 0x1, 0x0   	MOVF	POSTINC1, F
                                           ;	.line	53; F:/OneDrive/API_PINGUINO_18F4550/API/pinguino/libraries/lcdlib.c	for (i = 0; i < 4; i++)
003724   2a01     incf    0x01, 0x1, 0x0   	INCF	r0x01, F
003726   0e04     movlw   0x04             	MOVLW	0x04
003728   5c01     subwf   0x01, 0x0, 0x0   	SUBWF	r0x01, W
00372a   e3dd     bnc     0x0036e6         	BNC	_00473_DS_
                                           ;	.line	55; F:/OneDrive/API_PINGUINO_18F4550/API/pinguino/libraries/lcdlib.c	lcd_pulseEnable();
00372c   ec0a     call    0x003c14, 0x0call    0x003c14, 0x0 	CALL	_lcd_pulseEnable
00372e   f01e
003730   cfe4     movff   0xfe4, 0x003     	MOVFF	PREINC1, r0x03
003732   f003
003734   cfe4     movff   0xfe4, 0x002     	MOVFF	PREINC1, r0x02
003736   f002
003738   cfe4     movff   0xfe4, 0x001     	MOVFF	PREINC1, r0x01
00373a   f001
00373c   cfe4     movff   0xfe4, 0x000     	MOVFF	PREINC1, r0x00
00373e   f000
003740   cfe4     movff   0xfe4, 0xfd9     	MOVFF	PREINC1, FSR2L
003742   ffd9
003744   0012     return  0x0              	RETURN	
                                           
                                           ; ; Starting pCode block
                                           S_main__lcd_pulseEnable	code
                                           _lcd_pulseEnable:
                                           ;	.line	43; F:/OneDrive/API_PINGUINO_18F4550/API/pinguino/libraries/lcdlib.c	digitalwrite(_enable_pin, HIGH);
003c14   0e01     movlw   0x01             	MOVLW	0x01
003c16   6ee5     movwf   0xe5, 0x0        	MOVWF	POSTDEC1
003c18   0102     movlb   0x2              	BANKSEL	__enable_pin
003c1a   518b     movf    0x8b, 0x0, 0x1   	MOVF	__enable_pin, W, B
003c1c   6ee5     movwf   0xe5, 0x0        	MOVWF	POSTDEC1
003c1e   ec29     call    0x002452, 0x0call    0x002452, 0x0 	CALL	_digitalwrite
003c20   f012
003c22   52e6     movf    0xe6, 0x1, 0x0   	MOVF	POSTINC1, F
003c24   52e6     movf    0xe6, 0x1, 0x0   	MOVF	POSTINC1, F
                                           ;	.line	45; F:/OneDrive/API_PINGUINO_18F4550/API/pinguino/libraries/lcdlib.c	digitalwrite(_enable_pin, LOW);
003c26   6ae5     clrf    0xe5, 0x0        	CLRF	POSTDEC1
003c28   0102     movlb   0x2              	BANKSEL	__enable_pin
003c2a   518b     movf    0x8b, 0x0, 0x1   	MOVF	__enable_pin, W, B
003c2c   6ee5     movwf   0xe5, 0x0        	MOVWF	POSTDEC1
003c2e   ec29     call    0x002452, 0x0call    0x002452, 0x0 	CALL	_digitalwrite
003c30   f012
003c32   52e6     movf    0xe6, 0x1, 0x0   	MOVF	POSTINC1, F
003c34   52e6     movf    0xe6, 0x1, 0x0   	MOVF	POSTINC1, F
003c36   0012     return  0x0              	RETURN	
                                           
                                           ; ; Starting pCode block
                                           S_main__digitalwrite	code
                                           _digitalwrite:
                                           ;	.line	48; F:/OneDrive/API_PINGUINO_18F4550/API/pinguino/core/digitalw.c	void digitalwrite(u8 pin, u8 state)
002452   cfd9     movff   0xfd9, 0xfe5     	MOVFF	FSR2L, POSTDEC1
002454   ffe5
002456   cfe1     movff   0xfe1, 0xfd9     	MOVFF	FSR1L, FSR2L
002458   ffd9
00245a   c000     movff   0x000, 0xfe5     	MOVFF	r0x00, POSTDEC1
00245c   ffe5
00245e   c001     movff   0x001, 0xfe5     	MOVFF	r0x01, POSTDEC1
002460   ffe5
002462   c002     movff   0x002, 0xfe5     	MOVFF	r0x02, POSTDEC1
002464   ffe5
002466   c003     movff   0x003, 0xfe5     	MOVFF	r0x03, POSTDEC1
002468   ffe5
00246a   c004     movff   0x004, 0xfe5     	MOVFF	r0x04, POSTDEC1
00246c   ffe5
00246e   0e02     movlw   0x02             	MOVLW	0x02
002470   cfdb     movff   0xfdb, 0x000     	MOVFF	PLUSW2, r0x00
002472   f000
002474   0e03     movlw   0x03             	MOVLW	0x03
002476   cfdb     movff   0xfdb, 0x001     	MOVFF	PLUSW2, r0x01
002478   f001
                                           ;	.line	54; F:/OneDrive/API_PINGUINO_18F4550/API/pinguino/core/digitalw.c	switch (port[pin])
00247a   0ed0     movlw   0xd0             	MOVLW	LOW(_port)
00247c   2400     addwf   0x00, 0x0, 0x0   	ADDWF	r0x00, W
00247e   6e02     movwf   0x02, 0x0        	MOVWF	r0x02
002480   6a03     clrf    0x03, 0x0        	CLRF	r0x03
002482   0e23     movlw   0x23             	MOVLW	HIGH(_port)
002484   2203     addwfc  0x03, 0x1, 0x0   	ADDWFC	r0x03, F
002486   6a04     clrf    0x04, 0x0        	CLRF	r0x04
002488   0e00     movlw   0x00             	MOVLW	UPPER(_port)
00248a   2204     addwfc  0x04, 0x1, 0x0   	ADDWFC	r0x04, F
00248c   c002     movff   0x002, 0xff6     	MOVFF	r0x02, TBLPTRL
00248e   fff6
002490   c003     movff   0x003, 0xff7     	MOVFF	r0x03, TBLPTRH
002492   fff7
002494   c004     movff   0x004, 0xff8     	MOVFF	r0x04, TBLPTRU
002496   fff8
002498   0009     tblrd*+                  	TBLRD*+	
00249a   cff5     movff   0xff5, 0x002     	MOVFF	TABLAT, r0x02
00249c   f002
00249e   0e05     movlw   0x05             	MOVLW	0x05
0024a0   5c02     subwf   0x02, 0x0, 0x0   	SUBWF	r0x02, W
0024a2   b0d8     btfsc   0xd8, 0x0, 0x0   	BTFSC	STATUS, 0
0024a4   d0f8     bra     0x002696         	BRA	_00441_DS_
0024a6   6afa     clrf    0xfa, 0x0        	CLRF	PCLATH
0024a8   6afb     clrf    0xfb, 0x0        	CLRF	PCLATU
0024aa   3402     rlcf    0x02, 0x0, 0x0   	RLCF	r0x02, W
0024ac   36fa     rlcf    0xfa, 0x1, 0x0   	RLCF	PCLATH, F
0024ae   34e8     rlcf    0xe8, 0x0, 0x0   	RLCF	WREG, W
0024b0   36fa     rlcf    0xfa, 0x1, 0x0   	RLCF	PCLATH, F
0024b2   0bfc     andlw   0xfc             	ANDLW	0xfc
0024b4   0fc4     addlw   0xc4             	ADDLW	LOW(_00462_DS_)
0024b6   6ee5     movwf   0xe5, 0x0        	MOVWF	POSTDEC1
0024b8   0e24     movlw   0x24             	MOVLW	HIGH(_00462_DS_)
0024ba   22fa     addwfc  0xfa, 0x1, 0x0   	ADDWFC	PCLATH, F
0024bc   0e00     movlw   0x00             	MOVLW	UPPER(_00462_DS_)
0024be   22fb     addwfc  0xfb, 0x1, 0x0   	ADDWFC	PCLATU, F
0024c0   50e4     movf    0xe4, 0x0, 0x0   	MOVF	PREINC1, W
0024c2   6ef9     movwf   0xf9, 0x0        	MOVWF	PCL
                                           _00462_DS_:
0024c4   ef6c     goto    0x0024d8         	GOTO	_00420_DS_
0024c6   f012
0024c8   ef99     goto    0x002532         	GOTO	_00424_DS_
0024ca   f012
0024cc   efc6     goto    0x00258c         	GOTO	_00428_DS_
0024ce   f012
0024d0   eff3     goto    0x0025e6         	GOTO	_00432_DS_
0024d2   f012
0024d4   ef20     goto    0x002640         	GOTO	_00436_DS_
0024d6   f013
                                           _00420_DS_:
                                           ;	.line	57; F:/OneDrive/API_PINGUINO_18F4550/API/pinguino/core/digitalw.c	if (state) LATA=LATA | mask[pin];
0024d8   5001     movf    0x01, 0x0, 0x0   	MOVF	r0x01, W
0024da   e015     bz      0x002506         	BZ	_00422_DS_
0024dc   0eb2     movlw   0xb2             	MOVLW	LOW(_mask)
0024de   2400     addwf   0x00, 0x0, 0x0   	ADDWF	r0x00, W
0024e0   6e02     movwf   0x02, 0x0        	MOVWF	r0x02
0024e2   6a03     clrf    0x03, 0x0        	CLRF	r0x03
0024e4   0e23     movlw   0x23             	MOVLW	HIGH(_mask)
0024e6   2203     addwfc  0x03, 0x1, 0x0   	ADDWFC	r0x03, F
0024e8   6a04     clrf    0x04, 0x0        	CLRF	r0x04
0024ea   0e00     movlw   0x00             	MOVLW	UPPER(_mask)
0024ec   2204     addwfc  0x04, 0x1, 0x0   	ADDWFC	r0x04, F
0024ee   c002     movff   0x002, 0xff6     	MOVFF	r0x02, TBLPTRL
0024f0   fff6
0024f2   c003     movff   0x003, 0xff7     	MOVFF	r0x03, TBLPTRH
0024f4   fff7
0024f6   c004     movff   0x004, 0xff8     	MOVFF	r0x04, TBLPTRU
0024f8   fff8
0024fa   0009     tblrd*+                  	TBLRD*+	
0024fc   cff5     movff   0xff5, 0x002     	MOVFF	TABLAT, r0x02
0024fe   f002
002500   5002     movf    0x02, 0x0, 0x0   	MOVF	r0x02, W
002502   1289     iorwf   0x89, 0x1, 0x0   	IORWF	_LATA, F
002504   d0c8     bra     0x002696         	BRA	_00441_DS_
                                           _00422_DS_:
                                           ;	.line	58; F:/OneDrive/API_PINGUINO_18F4550/API/pinguino/core/digitalw.c	else LATA=LATA & (255-mask[pin]);
002506   0eb2     movlw   0xb2             	MOVLW	LOW(_mask)
002508   2400     addwf   0x00, 0x0, 0x0   	ADDWF	r0x00, W
00250a   6e02     movwf   0x02, 0x0        	MOVWF	r0x02
00250c   6a03     clrf    0x03, 0x0        	CLRF	r0x03
00250e   0e23     movlw   0x23             	MOVLW	HIGH(_mask)
002510   2203     addwfc  0x03, 0x1, 0x0   	ADDWFC	r0x03, F
002512   6a04     clrf    0x04, 0x0        	CLRF	r0x04
002514   0e00     movlw   0x00             	MOVLW	UPPER(_mask)
002516   2204     addwfc  0x04, 0x1, 0x0   	ADDWFC	r0x04, F
002518   c002     movff   0x002, 0xff6     	MOVFF	r0x02, TBLPTRL
00251a   fff6
00251c   c003     movff   0x003, 0xff7     	MOVFF	r0x03, TBLPTRH
00251e   fff7
002520   c004     movff   0x004, 0xff8     	MOVFF	r0x04, TBLPTRU
002522   fff8
002524   0009     tblrd*+                  	TBLRD*+	
002526   cff5     movff   0xff5, 0x002     	MOVFF	TABLAT, r0x02
002528   f002
00252a   5002     movf    0x02, 0x0, 0x0   	MOVF	r0x02, W
00252c   08ff     sublw   0xff             	SUBLW	0xff
                                           ; #	MOVWF	r0x02
                                           ; #	MOVF	r0x02, W
00252e   1689     andwf   0x89, 0x1, 0x0   	ANDWF	_LATA, F
                                           ;	.line	59; F:/OneDrive/API_PINGUINO_18F4550/API/pinguino/core/digitalw.c	break;
002530   d0b2     bra     0x002696         	BRA	_00441_DS_
                                           _00424_DS_:
                                           ;	.line	61; F:/OneDrive/API_PINGUINO_18F4550/API/pinguino/core/digitalw.c	if (state) LATB=LATB | mask[pin]; 
002532   5001     movf    0x01, 0x0, 0x0   	MOVF	r0x01, W
002534   e015     bz      0x002560         	BZ	_00426_DS_
002536   0eb2     movlw   0xb2             	MOVLW	LOW(_mask)
002538   2400     addwf   0x00, 0x0, 0x0   	ADDWF	r0x00, W
00253a   6e02     movwf   0x02, 0x0        	MOVWF	r0x02
00253c   6a03     clrf    0x03, 0x0        	CLRF	r0x03
00253e   0e23     movlw   0x23             	MOVLW	HIGH(_mask)
002540   2203     addwfc  0x03, 0x1, 0x0   	ADDWFC	r0x03, F
002542   6a04     clrf    0x04, 0x0        	CLRF	r0x04
002544   0e00     movlw   0x00             	MOVLW	UPPER(_mask)
002546   2204     addwfc  0x04, 0x1, 0x0   	ADDWFC	r0x04, F
002548   c002     movff   0x002, 0xff6     	MOVFF	r0x02, TBLPTRL
00254a   fff6
00254c   c003     movff   0x003, 0xff7     	MOVFF	r0x03, TBLPTRH
00254e   fff7
002550   c004     movff   0x004, 0xff8     	MOVFF	r0x04, TBLPTRU
002552   fff8
002554   0009     tblrd*+                  	TBLRD*+	
002556   cff5     movff   0xff5, 0x002     	MOVFF	TABLAT, r0x02
002558   f002
00255a   5002     movf    0x02, 0x0, 0x0   	MOVF	r0x02, W
00255c   128a     iorwf   0x8a, 0x1, 0x0   	IORWF	_LATB, F
00255e   d09b     bra     0x002696         	BRA	_00441_DS_
                                           _00426_DS_:
                                           ;	.line	62; F:/OneDrive/API_PINGUINO_18F4550/API/pinguino/core/digitalw.c	else LATB=LATB & (255-mask[pin]);
002560   0eb2     movlw   0xb2             	MOVLW	LOW(_mask)
002562   2400     addwf   0x00, 0x0, 0x0   	ADDWF	r0x00, W
002564   6e02     movwf   0x02, 0x0        	MOVWF	r0x02
002566   6a03     clrf    0x03, 0x0        	CLRF	r0x03
002568   0e23     movlw   0x23             	MOVLW	HIGH(_mask)
00256a   2203     addwfc  0x03, 0x1, 0x0   	ADDWFC	r0x03, F
00256c   6a04     clrf    0x04, 0x0        	CLRF	r0x04
00256e   0e00     movlw   0x00             	MOVLW	UPPER(_mask)
002570   2204     addwfc  0x04, 0x1, 0x0   	ADDWFC	r0x04, F
002572   c002     movff   0x002, 0xff6     	MOVFF	r0x02, TBLPTRL
002574   fff6
002576   c003     movff   0x003, 0xff7     	MOVFF	r0x03, TBLPTRH
002578   fff7
00257a   c004     movff   0x004, 0xff8     	MOVFF	r0x04, TBLPTRU
00257c   fff8
00257e   0009     tblrd*+                  	TBLRD*+	
002580   cff5     movff   0xff5, 0x002     	MOVFF	TABLAT, r0x02
002582   f002
002584   5002     movf    0x02, 0x0, 0x0   	MOVF	r0x02, W
002586   08ff     sublw   0xff             	SUBLW	0xff
                                           ; #	MOVWF	r0x02
                                           ; #	MOVF	r0x02, W
002588   168a     andwf   0x8a, 0x1, 0x0   	ANDWF	_LATB, F
                                           ;	.line	63; F:/OneDrive/API_PINGUINO_18F4550/API/pinguino/core/digitalw.c	break;
00258a   d085     bra     0x002696         	BRA	_00441_DS_
                                           _00428_DS_:
                                           ;	.line	65; F:/OneDrive/API_PINGUINO_18F4550/API/pinguino/core/digitalw.c	if (state) LATC=LATC | mask[pin];
00258c   5001     movf    0x01, 0x0, 0x0   	MOVF	r0x01, W
00258e   e015     bz      0x0025ba         	BZ	_00430_DS_
002590   0eb2     movlw   0xb2             	MOVLW	LOW(_mask)
002592   2400     addwf   0x00, 0x0, 0x0   	ADDWF	r0x00, W
002594   6e02     movwf   0x02, 0x0        	MOVWF	r0x02
002596   6a03     clrf    0x03, 0x0        	CLRF	r0x03
002598   0e23     movlw   0x23             	MOVLW	HIGH(_mask)
00259a   2203     addwfc  0x03, 0x1, 0x0   	ADDWFC	r0x03, F
00259c   6a04     clrf    0x04, 0x0        	CLRF	r0x04
00259e   0e00     movlw   0x00             	MOVLW	UPPER(_mask)
0025a0   2204     addwfc  0x04, 0x1, 0x0   	ADDWFC	r0x04, F
0025a2   c002     movff   0x002, 0xff6     	MOVFF	r0x02, TBLPTRL
0025a4   fff6
0025a6   c003     movff   0x003, 0xff7     	MOVFF	r0x03, TBLPTRH
0025a8   fff7
0025aa   c004     movff   0x004, 0xff8     	MOVFF	r0x04, TBLPTRU
0025ac   fff8
0025ae   0009     tblrd*+                  	TBLRD*+	
0025b0   cff5     movff   0xff5, 0x002     	MOVFF	TABLAT, r0x02
0025b2   f002
0025b4   5002     movf    0x02, 0x0, 0x0   	MOVF	r0x02, W
0025b6   128b     iorwf   0x8b, 0x1, 0x0   	IORWF	_LATC, F
0025b8   d06e     bra     0x002696         	BRA	_00441_DS_
                                           _00430_DS_:
                                           ;	.line	66; F:/OneDrive/API_PINGUINO_18F4550/API/pinguino/core/digitalw.c	else LATC=LATC & (255-mask[pin]);
0025ba   0eb2     movlw   0xb2             	MOVLW	LOW(_mask)
0025bc   2400     addwf   0x00, 0x0, 0x0   	ADDWF	r0x00, W
0025be   6e02     movwf   0x02, 0x0        	MOVWF	r0x02
0025c0   6a03     clrf    0x03, 0x0        	CLRF	r0x03
0025c2   0e23     movlw   0x23             	MOVLW	HIGH(_mask)
0025c4   2203     addwfc  0x03, 0x1, 0x0   	ADDWFC	r0x03, F
0025c6   6a04     clrf    0x04, 0x0        	CLRF	r0x04
0025c8   0e00     movlw   0x00             	MOVLW	UPPER(_mask)
0025ca   2204     addwfc  0x04, 0x1, 0x0   	ADDWFC	r0x04, F
0025cc   c002     movff   0x002, 0xff6     	MOVFF	r0x02, TBLPTRL
0025ce   fff6
0025d0   c003     movff   0x003, 0xff7     	MOVFF	r0x03, TBLPTRH
0025d2   fff7
0025d4   c004     movff   0x004, 0xff8     	MOVFF	r0x04, TBLPTRU
0025d6   fff8
0025d8   0009     tblrd*+                  	TBLRD*+	
0025da   cff5     movff   0xff5, 0x002     	MOVFF	TABLAT, r0x02
0025dc   f002
0025de   5002     movf    0x02, 0x0, 0x0   	MOVF	r0x02, W
0025e0   08ff     sublw   0xff             	SUBLW	0xff
                                           ; #	MOVWF	r0x02
                                           ; #	MOVF	r0x02, W
0025e2   168b     andwf   0x8b, 0x1, 0x0   	ANDWF	_LATC, F
                                           ;	.line	67; F:/OneDrive/API_PINGUINO_18F4550/API/pinguino/core/digitalw.c	break;
0025e4   d058     bra     0x002696         	BRA	_00441_DS_
                                           _00432_DS_:
                                           ;	.line	72; F:/OneDrive/API_PINGUINO_18F4550/API/pinguino/core/digitalw.c	if (state) LATD=LATD | mask[pin]; 
0025e6   5001     movf    0x01, 0x0, 0x0   	MOVF	r0x01, W
0025e8   e015     bz      0x002614         	BZ	_00434_DS_
0025ea   0eb2     movlw   0xb2             	MOVLW	LOW(_mask)
0025ec   2400     addwf   0x00, 0x0, 0x0   	ADDWF	r0x00, W
0025ee   6e02     movwf   0x02, 0x0        	MOVWF	r0x02
0025f0   6a03     clrf    0x03, 0x0        	CLRF	r0x03
0025f2   0e23     movlw   0x23             	MOVLW	HIGH(_mask)
0025f4   2203     addwfc  0x03, 0x1, 0x0   	ADDWFC	r0x03, F
0025f6   6a04     clrf    0x04, 0x0        	CLRF	r0x04
0025f8   0e00     movlw   0x00             	MOVLW	UPPER(_mask)
0025fa   2204     addwfc  0x04, 0x1, 0x0   	ADDWFC	r0x04, F
0025fc   c002     movff   0x002, 0xff6     	MOVFF	r0x02, TBLPTRL
0025fe   fff6
002600   c003     movff   0x003, 0xff7     	MOVFF	r0x03, TBLPTRH
002602   fff7
002604   c004     movff   0x004, 0xff8     	MOVFF	r0x04, TBLPTRU
002606   fff8
002608   0009     tblrd*+                  	TBLRD*+	
00260a   cff5     movff   0xff5, 0x002     	MOVFF	TABLAT, r0x02
00260c   f002
00260e   5002     movf    0x02, 0x0, 0x0   	MOVF	r0x02, W
002610   128c     iorwf   0x8c, 0x1, 0x0   	IORWF	_LATD, F
002612   d041     bra     0x002696         	BRA	_00441_DS_
                                           _00434_DS_:
                                           ;	.line	73; F:/OneDrive/API_PINGUINO_18F4550/API/pinguino/core/digitalw.c	else LATD=LATD & (255-mask[pin]);
002614   0eb2     movlw   0xb2             	MOVLW	LOW(_mask)
002616   2400     addwf   0x00, 0x0, 0x0   	ADDWF	r0x00, W
002618   6e02     movwf   0x02, 0x0        	MOVWF	r0x02
00261a   6a03     clrf    0x03, 0x0        	CLRF	r0x03
00261c   0e23     movlw   0x23             	MOVLW	HIGH(_mask)
00261e   2203     addwfc  0x03, 0x1, 0x0   	ADDWFC	r0x03, F
002620   6a04     clrf    0x04, 0x0        	CLRF	r0x04
002622   0e00     movlw   0x00             	MOVLW	UPPER(_mask)
002624   2204     addwfc  0x04, 0x1, 0x0   	ADDWFC	r0x04, F
002626   c002     movff   0x002, 0xff6     	MOVFF	r0x02, TBLPTRL
002628   fff6
00262a   c003     movff   0x003, 0xff7     	MOVFF	r0x03, TBLPTRH
00262c   fff7
00262e   c004     movff   0x004, 0xff8     	MOVFF	r0x04, TBLPTRU
002630   fff8
002632   0009     tblrd*+                  	TBLRD*+	
002634   cff5     movff   0xff5, 0x002     	MOVFF	TABLAT, r0x02
002636   f002
002638   5002     movf    0x02, 0x0, 0x0   	MOVF	r0x02, W
00263a   08ff     sublw   0xff             	SUBLW	0xff
                                           ; #	MOVWF	r0x02
                                           ; #	MOVF	r0x02, W
00263c   168c     andwf   0x8c, 0x1, 0x0   	ANDWF	_LATD, F
                                           ;	.line	74; F:/OneDrive/API_PINGUINO_18F4550/API/pinguino/core/digitalw.c	break;
00263e   d02b     bra     0x002696         	BRA	_00441_DS_
                                           _00436_DS_:
                                           ;	.line	76; F:/OneDrive/API_PINGUINO_18F4550/API/pinguino/core/digitalw.c	if (state) LATE=LATE | mask[pin]; 
002640   5001     movf    0x01, 0x0, 0x0   	MOVF	r0x01, W
002642   e015     bz      0x00266e         	BZ	_00438_DS_
002644   0eb2     movlw   0xb2             	MOVLW	LOW(_mask)
002646   2400     addwf   0x00, 0x0, 0x0   	ADDWF	r0x00, W
002648   6e01     movwf   0x01, 0x0        	MOVWF	r0x01
00264a   6a02     clrf    0x02, 0x0        	CLRF	r0x02
00264c   0e23     movlw   0x23             	MOVLW	HIGH(_mask)
00264e   2202     addwfc  0x02, 0x1, 0x0   	ADDWFC	r0x02, F
002650   6a03     clrf    0x03, 0x0        	CLRF	r0x03
002652   0e00     movlw   0x00             	MOVLW	UPPER(_mask)
002654   2203     addwfc  0x03, 0x1, 0x0   	ADDWFC	r0x03, F
002656   c001     movff   0x001, 0xff6     	MOVFF	r0x01, TBLPTRL
002658   fff6
00265a   c002     movff   0x002, 0xff7     	MOVFF	r0x02, TBLPTRH
00265c   fff7
00265e   c003     movff   0x003, 0xff8     	MOVFF	r0x03, TBLPTRU
002660   fff8
002662   0009     tblrd*+                  	TBLRD*+	
002664   cff5     movff   0xff5, 0x001     	MOVFF	TABLAT, r0x01
002666   f001
002668   5001     movf    0x01, 0x0, 0x0   	MOVF	r0x01, W
00266a   128d     iorwf   0x8d, 0x1, 0x0   	IORWF	_LATE, F
00266c   d014     bra     0x002696         	BRA	_00441_DS_
                                           _00438_DS_:
                                           ;	.line	77; F:/OneDrive/API_PINGUINO_18F4550/API/pinguino/core/digitalw.c	else LATE=LATE & (255-mask[pin]);
00266e   6a01     clrf    0x01, 0x0        	CLRF	r0x01
002670   6a02     clrf    0x02, 0x0        	CLRF	r0x02
002672   0eb2     movlw   0xb2             	MOVLW	LOW(_mask)
002674   2600     addwf   0x00, 0x1, 0x0   	ADDWF	r0x00, F
002676   0e23     movlw   0x23             	MOVLW	HIGH(_mask)
002678   2201     addwfc  0x01, 0x1, 0x0   	ADDWFC	r0x01, F
00267a   0e00     movlw   0x00             	MOVLW	UPPER(_mask)
00267c   2202     addwfc  0x02, 0x1, 0x0   	ADDWFC	r0x02, F
00267e   c000     movff   0x000, 0xff6     	MOVFF	r0x00, TBLPTRL
002680   fff6
002682   c001     movff   0x001, 0xff7     	MOVFF	r0x01, TBLPTRH
002684   fff7
002686   c002     movff   0x002, 0xff8     	MOVFF	r0x02, TBLPTRU
002688   fff8
00268a   0009     tblrd*+                  	TBLRD*+	
00268c   cff5     movff   0xff5, 0x000     	MOVFF	TABLAT, r0x00
00268e   f000
002690   5000     movf    0x00, 0x0, 0x0   	MOVF	r0x00, W
002692   08ff     sublw   0xff             	SUBLW	0xff
                                           ; #	MOVWF	r0x00
                                           ; #	MOVF	r0x00, W
002694   168d     andwf   0x8d, 0x1, 0x0   	ANDWF	_LATE, F
                                           _00441_DS_:
                                           ;	.line	80; F:/OneDrive/API_PINGUINO_18F4550/API/pinguino/core/digitalw.c	}
002696   cfe4     movff   0xfe4, 0x004     	MOVFF	PREINC1, r0x04
002698   f004
00269a   cfe4     movff   0xfe4, 0x003     	MOVFF	PREINC1, r0x03
00269c   f003
00269e   cfe4     movff   0xfe4, 0x002     	MOVFF	PREINC1, r0x02
0026a0   f002
0026a2   cfe4     movff   0xfe4, 0x001     	MOVFF	PREINC1, r0x01
0026a4   f001
0026a6   cfe4     movff   0xfe4, 0x000     	MOVFF	PREINC1, r0x00
0026a8   f000
0026aa   cfe4     movff   0xfe4, 0xfd9     	MOVFF	PREINC1, FSR2L
0026ac   ffd9
0026ae   0012     return  0x0              	RETURN	
                                           
                                           ; ; Starting pCode block
                                           S_main__Delayus	code
                                           _Delayus:
                                           ;	.line	69; F:/OneDrive/API_PINGUINO_18F4550/API/pinguino/core/delayus.c	void Delayus(unsigned int microseconds)
003a18   cfd9     movff   0xfd9, 0xfe5     	MOVFF	FSR2L, POSTDEC1
003a1a   ffe5
003a1c   cfe1     movff   0xfe1, 0xfd9     	MOVFF	FSR1L, FSR2L
003a1e   ffd9
003a20   c000     movff   0x000, 0xfe5     	MOVFF	r0x00, POSTDEC1
003a22   ffe5
003a24   c001     movff   0x001, 0xfe5     	MOVFF	r0x01, POSTDEC1
003a26   ffe5
003a28   c002     movff   0x002, 0xfe5     	MOVFF	r0x02, POSTDEC1
003a2a   ffe5
003a2c   c003     movff   0x003, 0xfe5     	MOVFF	r0x03, POSTDEC1
003a2e   ffe5
003a30   0e02     movlw   0x02             	MOVLW	0x02
003a32   cfdb     movff   0xfdb, 0x000     	MOVFF	PLUSW2, r0x00
003a34   f000
003a36   0e03     movlw   0x03             	MOVLW	0x03
003a38   cfdb     movff   0xfdb, 0x001     	MOVFF	PLUSW2, r0x01
003a3a   f001
                                           ;	.line	73; F:/OneDrive/API_PINGUINO_18F4550/API/pinguino/core/delayus.c	for (i=0; i<microseconds; i++)
003a3c   6a02     clrf    0x02, 0x0        	CLRF	r0x02
003a3e   6a03     clrf    0x03, 0x0        	CLRF	r0x03
                                           _00404_DS_:
003a40   5001     movf    0x01, 0x0, 0x0   	MOVF	r0x01, W
003a42   5c03     subwf   0x03, 0x0, 0x0   	SUBWF	r0x03, W
003a44   e102     bnz     0x003a4a         	BNZ	_00415_DS_
003a46   5000     movf    0x00, 0x0, 0x0   	MOVF	r0x00, W
003a48   5c02     subwf   0x02, 0x0, 0x0   	SUBWF	r0x02, W
                                           _00415_DS_:
003a4a   e203     bc      0x003a52         	BC	_00406_DS_
003a4c   4a02     infsnz  0x02, 0x1, 0x0   	INFSNZ	r0x02, F
003a4e   2a03     incf    0x03, 0x1, 0x0   	INCF	r0x03, F
003a50   d7f7     bra     0x003a40         	BRA	_00404_DS_
                                           _00406_DS_:
003a52   cfe4     movff   0xfe4, 0x003     	MOVFF	PREINC1, r0x03
003a54   f003
003a56   cfe4     movff   0xfe4, 0x002     	MOVFF	PREINC1, r0x02
003a58   f002
003a5a   cfe4     movff   0xfe4, 0x001     	MOVFF	PREINC1, r0x01
003a5c   f001
003a5e   cfe4     movff   0xfe4, 0x000     	MOVFF	PREINC1, r0x00
003a60   f000
003a62   cfe4     movff   0xfe4, 0xfd9     	MOVFF	PREINC1, FSR2L
003a64   ffd9
003a66   0012     return  0x0              	RETURN	
                                           
                                           ; ; Starting pCode block
                                           S_main__Delayms	code
                                           _Delayms:
                                           ;	.line	93; F:/OneDrive/API_PINGUINO_18F4550/API/pinguino/core/delayms.c	void Delayms(u16 milliseconds)
003324   cfd9     movff   0xfd9, 0xfe5     	MOVFF	FSR2L, POSTDEC1
003326   ffe5
003328   cfe1     movff   0xfe1, 0xfd9     	MOVFF	FSR1L, FSR2L
00332a   ffd9
00332c   c000     movff   0x000, 0xfe5     	MOVFF	r0x00, POSTDEC1
00332e   ffe5
003330   c001     movff   0x001, 0xfe5     	MOVFF	r0x01, POSTDEC1
003332   ffe5
003334   c002     movff   0x002, 0xfe5     	MOVFF	r0x02, POSTDEC1
003336   ffe5
003338   c003     movff   0x003, 0xfe5     	MOVFF	r0x03, POSTDEC1
00333a   ffe5
00333c   c004     movff   0x004, 0xfe5     	MOVFF	r0x04, POSTDEC1
00333e   ffe5
003340   c005     movff   0x005, 0xfe5     	MOVFF	r0x05, POSTDEC1
003342   ffe5
003344   0e02     movlw   0x02             	MOVLW	0x02
003346   cfdb     movff   0xfdb, 0x000     	MOVFF	PLUSW2, r0x00
003348   f000
00334a   0e03     movlw   0x03             	MOVLW	0x03
00334c   cfdb     movff   0xfdb, 0x001     	MOVFF	PLUSW2, r0x01
00334e   f001
                                           ;	.line	100; F:/OneDrive/API_PINGUINO_18F4550/API/pinguino/core/delayms.c	u16 n100tcy = System_getPeripheralFrequency() / 100000;
003350   ec87     call    0x00290e, 0x0call    0x00290e, 0x0 	CALL	_System_getCpuFrequency
003352   f014
003354   6e02     movwf   0x02, 0x0        	MOVWF	r0x02
003356   cff3     movff   0xff3, 0x003     	MOVFF	PRODL, r0x03
003358   f003
00335a   cff4     movff   0xff4, 0x004     	MOVFF	PRODH, r0x04
00335c   f004
00335e   cfe9     movff   0xfe9, 0x005     	MOVFF	FSR0L, r0x05
003360   f005
003362   90d8     bcf     0xd8, 0x0, 0x0   	BCF	STATUS, 0
003364   3205     rrcf    0x05, 0x1, 0x0   	RRCF	r0x05, F
003366   3204     rrcf    0x04, 0x1, 0x0   	RRCF	r0x04, F
003368   3203     rrcf    0x03, 0x1, 0x0   	RRCF	r0x03, F
00336a   3202     rrcf    0x02, 0x1, 0x0   	RRCF	r0x02, F
00336c   90d8     bcf     0xd8, 0x0, 0x0   	BCF	STATUS, 0
00336e   3205     rrcf    0x05, 0x1, 0x0   	RRCF	r0x05, F
003370   3204     rrcf    0x04, 0x1, 0x0   	RRCF	r0x04, F
003372   3203     rrcf    0x03, 0x1, 0x0   	RRCF	r0x03, F
003374   3202     rrcf    0x02, 0x1, 0x0   	RRCF	r0x02, F
003376   6ae5     clrf    0xe5, 0x0        	CLRF	POSTDEC1
003378   0e01     movlw   0x01             	MOVLW	0x01
00337a   6ee5     movwf   0xe5, 0x0        	MOVWF	POSTDEC1
00337c   0e86     movlw   0x86             	MOVLW	0x86
00337e   6ee5     movwf   0xe5, 0x0        	MOVWF	POSTDEC1
003380   0ea0     movlw   0xa0             	MOVLW	0xa0
003382   6ee5     movwf   0xe5, 0x0        	MOVWF	POSTDEC1
003384   5005     movf    0x05, 0x0, 0x0   	MOVF	r0x05, W
003386   6ee5     movwf   0xe5, 0x0        	MOVWF	POSTDEC1
003388   5004     movf    0x04, 0x0, 0x0   	MOVF	r0x04, W
00338a   6ee5     movwf   0xe5, 0x0        	MOVWF	POSTDEC1
00338c   5003     movf    0x03, 0x0, 0x0   	MOVF	r0x03, W
00338e   6ee5     movwf   0xe5, 0x0        	MOVWF	POSTDEC1
003390   5002     movf    0x02, 0x0, 0x0   	MOVF	r0x02, W
003392   6ee5     movwf   0xe5, 0x0        	MOVWF	POSTDEC1
003394   ec36     call    0x00306c, 0x0call    0x00306c, 0x0 	CALL	__divulong
003396   f018
003398   6e02     movwf   0x02, 0x0        	MOVWF	r0x02
00339a   0e08     movlw   0x08             	MOVLW	0x08
00339c   26e1     addwf   0xe1, 0x1, 0x0   	ADDWF	FSR1L, F
                                           _00394_DS_:
                                           ;	.line	101; F:/OneDrive/API_PINGUINO_18F4550/API/pinguino/core/delayms.c	while (milliseconds--)
00339e   c000     movff   0x000, 0x004     	MOVFF	r0x00, r0x04
0033a0   f004
0033a2   c001     movff   0x001, 0x005     	MOVFF	r0x01, r0x05
0033a4   f005
0033a6   0eff     movlw   0xff             	MOVLW	0xff
0033a8   2600     addwf   0x00, 0x1, 0x0   	ADDWF	r0x00, F
0033aa   2201     addwfc  0x01, 0x1, 0x0   	ADDWFC	r0x01, F
0033ac   5004     movf    0x04, 0x0, 0x0   	MOVF	r0x04, W
0033ae   1005     iorwf   0x05, 0x0, 0x0   	IORWF	r0x05, W
0033b0   e008     bz      0x0033c2         	BZ	_00397_DS_
                                           ;	.line	102; F:/OneDrive/API_PINGUINO_18F4550/API/pinguino/core/delayms.c	delay100tcy(n100tcy-3);
0033b2   5002     movf    0x02, 0x0, 0x0   	MOVF	r0x02, W
0033b4   6e04     movwf   0x04, 0x0        	MOVWF	r0x04
0033b6   0efd     movlw   0xfd             	MOVLW	0xfd
0033b8   2604     addwf   0x04, 0x1, 0x0   	ADDWF	r0x04, F
0033ba   5004     movf    0x04, 0x0, 0x0   	MOVF	r0x04, W
0033bc   ec16     call    0x00242c, 0x0call    0x00242c, 0x0 	CALL	_delay100tcy
0033be   f012
0033c0   d7ee     bra     0x00339e         	BRA	_00394_DS_
                                           _00397_DS_:
0033c2   cfe4     movff   0xfe4, 0x005     	MOVFF	PREINC1, r0x05
0033c4   f005
0033c6   cfe4     movff   0xfe4, 0x004     	MOVFF	PREINC1, r0x04
0033c8   f004
0033ca   cfe4     movff   0xfe4, 0x003     	MOVFF	PREINC1, r0x03
0033cc   f003
0033ce   cfe4     movff   0xfe4, 0x002     	MOVFF	PREINC1, r0x02
0033d0   f002
0033d2   cfe4     movff   0xfe4, 0x001     	MOVFF	PREINC1, r0x01
0033d4   f001
0033d6   cfe4     movff   0xfe4, 0x000     	MOVFF	PREINC1, r0x00
0033d8   f000
0033da   cfe4     movff   0xfe4, 0xfd9     	MOVFF	PREINC1, FSR2L
0033dc   ffd9
0033de   0012     return  0x0              	RETURN	
                                           
                                           ; ; Starting pCode block
                                           S_main__System_getCpuFrequency	code
                                           _System_getCpuFrequency:
                                           ;	.line	227; F:/OneDrive/API_PINGUINO_18F4550/API/pinguino/core/oscillator.c	u32 System_getCpuFrequency() 
00290e   c000     movff   0x000, 0xfe5     	MOVFF	r0x00, POSTDEC1
002910   ffe5
002912   c001     movff   0x001, 0xfe5     	MOVFF	r0x01, POSTDEC1
002914   ffe5
002916   c002     movff   0x002, 0xfe5     	MOVFF	r0x02, POSTDEC1
002918   ffe5
00291a   c003     movff   0x003, 0xfe5     	MOVFF	r0x03, POSTDEC1
00291c   ffe5
00291e   c004     movff   0x004, 0xfe5     	MOVFF	r0x04, POSTDEC1
002920   ffe5
002922   c005     movff   0x005, 0xfe5     	MOVFF	r0x05, POSTDEC1
002924   ffe5
                                           ;	.line	242; F:/OneDrive/API_PINGUINO_18F4550/API/pinguino/core/oscillator.c	if (OSCCONbits.SCS == 0)
002926   50d3     movf    0xd3, 0x0, 0x0   	MOVF	_OSCCONbits, W
002928   0b03     andlw   0x03             	ANDLW	0x03
00292a   6e00     movwf   0x00, 0x0        	MOVWF	r0x00
00292c   5000     movf    0x00, 0x0, 0x0   	MOVF	r0x00, W
00292e   a4d8     btfss   0xd8, 0x2, 0x0   	BTFSS	STATUS, 2
002930   d091     bra     0x002a54         	BRA	_00359_DS_
                                           ;	.line	268; F:/OneDrive/API_PINGUINO_18F4550/API/pinguino/core/oscillator.c	CPUDIV  = ( System_readFlashMemory(__CONFIG1L) & 0b00011000 ) >> 3;
002932   6ae5     clrf    0xe5, 0x0        	CLRF	POSTDEC1
002934   0e30     movlw   0x30             	MOVLW	0x30
002936   6ee5     movwf   0xe5, 0x0        	MOVWF	POSTDEC1
002938   0e00     movlw   0x00             	MOVLW	0x00
00293a   6ae5     clrf    0xe5, 0x0        	CLRF	POSTDEC1
00293c   6ae5     clrf    0xe5, 0x0        	CLRF	POSTDEC1
00293e   ecf0     call    0x0033e0, 0x0call    0x0033e0, 0x0 	CALL	_System_readFlashMemory
002940   f019
002942   6e00     movwf   0x00, 0x0        	MOVWF	r0x00
002944   0e04     movlw   0x04             	MOVLW	0x04
002946   26e1     addwf   0xe1, 0x1, 0x0   	ADDWF	FSR1L, F
002948   0e18     movlw   0x18             	MOVLW	0x18
00294a   1600     andwf   0x00, 0x1, 0x0   	ANDWF	r0x00, F
00294c   6a01     clrf    0x01, 0x0        	CLRF	r0x01
00294e   90d8     bcf     0xd8, 0x0, 0x0   	BCF	STATUS, 0
002950   3201     rrcf    0x01, 0x1, 0x0   	RRCF	r0x01, F
002952   3200     rrcf    0x00, 0x1, 0x0   	RRCF	r0x00, F
002954   90d8     bcf     0xd8, 0x0, 0x0   	BCF	STATUS, 0
002956   3201     rrcf    0x01, 0x1, 0x0   	RRCF	r0x01, F
002958   3200     rrcf    0x00, 0x1, 0x0   	RRCF	r0x00, F
00295a   90d8     bcf     0xd8, 0x0, 0x0   	BCF	STATUS, 0
00295c   3201     rrcf    0x01, 0x1, 0x0   	RRCF	r0x01, F
00295e   3200     rrcf    0x00, 0x1, 0x0   	RRCF	r0x00, F
                                           ;	.line	269; F:/OneDrive/API_PINGUINO_18F4550/API/pinguino/core/oscillator.c	CPUDIV_XTAL = cpudiv_xtal[CPUDIV];
002960   0ef2     movlw   0xf2             	MOVLW	LOW(_cpudiv_xtal)
002962   2400     addwf   0x00, 0x0, 0x0   	ADDWF	r0x00, W
002964   6e01     movwf   0x01, 0x0        	MOVWF	r0x01
002966   6a02     clrf    0x02, 0x0        	CLRF	r0x02
002968   0e23     movlw   0x23             	MOVLW	HIGH(_cpudiv_xtal)
00296a   2202     addwfc  0x02, 0x1, 0x0   	ADDWFC	r0x02, F
00296c   6a03     clrf    0x03, 0x0        	CLRF	r0x03
00296e   0e00     movlw   0x00             	MOVLW	UPPER(_cpudiv_xtal)
002970   2203     addwfc  0x03, 0x1, 0x0   	ADDWFC	r0x03, F
002972   c001     movff   0x001, 0xff6     	MOVFF	r0x01, TBLPTRL
002974   fff6
002976   c002     movff   0x002, 0xff7     	MOVFF	r0x02, TBLPTRH
002978   fff7
00297a   c003     movff   0x003, 0xff8     	MOVFF	r0x03, TBLPTRU
00297c   fff8
00297e   0009     tblrd*+                  	TBLRD*+	
002980   cff5     movff   0xff5, 0x001     	MOVFF	TABLAT, r0x01
002982   f001
                                           ;	.line	270; F:/OneDrive/API_PINGUINO_18F4550/API/pinguino/core/oscillator.c	fosc  = System_readFlashMemory(__CONFIG1H) & 0b00001111;
002984   6ae5     clrf    0xe5, 0x0        	CLRF	POSTDEC1
002986   0e30     movlw   0x30             	MOVLW	0x30
002988   6ee5     movwf   0xe5, 0x0        	MOVWF	POSTDEC1
00298a   6ae5     clrf    0xe5, 0x0        	CLRF	POSTDEC1
00298c   0e01     movlw   0x01             	MOVLW	0x01
00298e   6ee5     movwf   0xe5, 0x0        	MOVWF	POSTDEC1
002990   ecf0     call    0x0033e0, 0x0call    0x0033e0, 0x0 	CALL	_System_readFlashMemory
002992   f019
002994   6e02     movwf   0x02, 0x0        	MOVWF	r0x02
002996   0e04     movlw   0x04             	MOVLW	0x04
002998   26e1     addwf   0xe1, 0x1, 0x0   	ADDWF	FSR1L, F
00299a   0e0f     movlw   0x0f             	MOVLW	0x0f
00299c   1602     andwf   0x02, 0x1, 0x0   	ANDWF	r0x02, F
                                           ;	.line	284; F:/OneDrive/API_PINGUINO_18F4550/API/pinguino/core/oscillator.c	CPUDIV = cpudiv[CPUDIV];
00299e   0eee     movlw   0xee             	MOVLW	LOW(_cpudiv)
0029a0   2400     addwf   0x00, 0x0, 0x0   	ADDWF	r0x00, W
0029a2   6e03     movwf   0x03, 0x0        	MOVWF	r0x03
0029a4   6a04     clrf    0x04, 0x0        	CLRF	r0x04
0029a6   0e23     movlw   0x23             	MOVLW	HIGH(_cpudiv)
0029a8   2204     addwfc  0x04, 0x1, 0x0   	ADDWFC	r0x04, F
0029aa   6a05     clrf    0x05, 0x0        	CLRF	r0x05
0029ac   0e00     movlw   0x00             	MOVLW	UPPER(_cpudiv)
0029ae   2205     addwfc  0x05, 0x1, 0x0   	ADDWFC	r0x05, F
0029b0   c003     movff   0x003, 0xff6     	MOVFF	r0x03, TBLPTRL
0029b2   fff6
0029b4   c004     movff   0x004, 0xff7     	MOVFF	r0x04, TBLPTRH
0029b6   fff7
0029b8   c005     movff   0x005, 0xff8     	MOVFF	r0x05, TBLPTRU
0029ba   fff8
0029bc   0009     tblrd*+                  	TBLRD*+	
0029be   cff5     movff   0xff5, 0x000     	MOVFF	TABLAT, r0x00
0029c0   f000
                                           ;	.line	292; F:/OneDrive/API_PINGUINO_18F4550/API/pinguino/core/oscillator.c	fosc >>=1;
0029c2   90d8     bcf     0xd8, 0x0, 0x0   	BCF	STATUS, 0
0029c4   3202     rrcf    0x02, 0x1, 0x0   	RRCF	r0x02, F
                                           ;	.line	293; F:/OneDrive/API_PINGUINO_18F4550/API/pinguino/core/oscillator.c	if( (fosc==0) || (fosc==2) || (fosc==6) )
0029c6   5002     movf    0x02, 0x0, 0x0   	MOVF	r0x02, W
0029c8   e006     bz      0x0029d6         	BZ	_00353_DS_
0029ca   5002     movf    0x02, 0x0, 0x0   	MOVF	r0x02, W
0029cc   0a02     xorlw   0x02             	XORLW	0x02
0029ce   e003     bz      0x0029d6         	BZ	_00353_DS_
0029d0   5002     movf    0x02, 0x0, 0x0   	MOVF	r0x02, W
0029d2   0a06     xorlw   0x06             	XORLW	0x06
0029d4   e11f     bnz     0x002a14         	BNZ	_00354_DS_
                                           _00353_DS_:
                                           ;	.line	295; F:/OneDrive/API_PINGUINO_18F4550/API/pinguino/core/oscillator.c	return CRYSTAL / CPUDIV_XTAL;
0029d6   6ae5     clrf    0xe5, 0x0        	CLRF	POSTDEC1
0029d8   6ae5     clrf    0xe5, 0x0        	CLRF	POSTDEC1
0029da   6ae5     clrf    0xe5, 0x0        	CLRF	POSTDEC1
0029dc   5001     movf    0x01, 0x0, 0x0   	MOVF	r0x01, W
0029de   6ee5     movwf   0xe5, 0x0        	MOVWF	POSTDEC1
0029e0   6ae5     clrf    0xe5, 0x0        	CLRF	POSTDEC1
0029e2   0e7a     movlw   0x7a             	MOVLW	0x7a
0029e4   6ee5     movwf   0xe5, 0x0        	MOVWF	POSTDEC1
0029e6   0e12     movlw   0x12             	MOVLW	0x12
0029e8   6ee5     movwf   0xe5, 0x0        	MOVWF	POSTDEC1
0029ea   0e00     movlw   0x00             	MOVLW	0x00
0029ec   6ae5     clrf    0xe5, 0x0        	CLRF	POSTDEC1
0029ee   ec7a     call    0x002af4, 0x0call    0x002af4, 0x0 	CALL	__divslong
0029f0   f015
0029f2   6e01     movwf   0x01, 0x0        	MOVWF	r0x01
0029f4   cff3     movff   0xff3, 0x002     	MOVFF	PRODL, r0x02
0029f6   f002
0029f8   cff4     movff   0xff4, 0x003     	MOVFF	PRODH, r0x03
0029fa   f003
0029fc   cfe9     movff   0xfe9, 0x004     	MOVFF	FSR0L, r0x04
0029fe   f004
002a00   0e08     movlw   0x08             	MOVLW	0x08
002a02   26e1     addwf   0xe1, 0x1, 0x0   	ADDWF	FSR1L, F
002a04   c004     movff   0x004, 0xfe9     	MOVFF	r0x04, FSR0L
002a06   ffe9
002a08   c003     movff   0x003, 0xff4     	MOVFF	r0x03, PRODH
002a0a   fff4
002a0c   c002     movff   0x002, 0xff3     	MOVFF	r0x02, PRODL
002a0e   fff3
002a10   5001     movf    0x01, 0x0, 0x0   	MOVF	r0x01, W
002a12   d063     bra     0x002ada         	BRA	_00364_DS_
                                           _00354_DS_:
                                           ;	.line	299; F:/OneDrive/API_PINGUINO_18F4550/API/pinguino/core/oscillator.c	return 96000000UL / CPUDIV;
002a14   6ae5     clrf    0xe5, 0x0        	CLRF	POSTDEC1
002a16   6ae5     clrf    0xe5, 0x0        	CLRF	POSTDEC1
002a18   6ae5     clrf    0xe5, 0x0        	CLRF	POSTDEC1
002a1a   5000     movf    0x00, 0x0, 0x0   	MOVF	r0x00, W
002a1c   6ee5     movwf   0xe5, 0x0        	MOVWF	POSTDEC1
002a1e   0e05     movlw   0x05             	MOVLW	0x05
002a20   6ee5     movwf   0xe5, 0x0        	MOVWF	POSTDEC1
002a22   0eb8     movlw   0xb8             	MOVLW	0xb8
002a24   6ee5     movwf   0xe5, 0x0        	MOVWF	POSTDEC1
002a26   0ed8     movlw   0xd8             	MOVLW	0xd8
002a28   6ee5     movwf   0xe5, 0x0        	MOVWF	POSTDEC1
002a2a   0e00     movlw   0x00             	MOVLW	0x00
002a2c   6ae5     clrf    0xe5, 0x0        	CLRF	POSTDEC1
002a2e   ec36     call    0x00306c, 0x0call    0x00306c, 0x0 	CALL	__divulong
002a30   f018
002a32   6e00     movwf   0x00, 0x0        	MOVWF	r0x00
002a34   cff3     movff   0xff3, 0x001     	MOVFF	PRODL, r0x01
002a36   f001
002a38   cff4     movff   0xff4, 0x002     	MOVFF	PRODH, r0x02
002a3a   f002
002a3c   cfe9     movff   0xfe9, 0x003     	MOVFF	FSR0L, r0x03
002a3e   f003
002a40   0e08     movlw   0x08             	MOVLW	0x08
002a42   26e1     addwf   0xe1, 0x1, 0x0   	ADDWF	FSR1L, F
002a44   c003     movff   0x003, 0xfe9     	MOVFF	r0x03, FSR0L
002a46   ffe9
002a48   c002     movff   0x002, 0xff4     	MOVFF	r0x02, PRODH
002a4a   fff4
002a4c   c001     movff   0x001, 0xff3     	MOVFF	r0x01, PRODL
002a4e   fff3
002a50   5000     movf    0x00, 0x0, 0x0   	MOVF	r0x00, W
002a52   d043     bra     0x002ada         	BRA	_00364_DS_
                                           _00359_DS_:
                                           ;	.line	312; F:/OneDrive/API_PINGUINO_18F4550/API/pinguino/core/oscillator.c	if (OSCCONbits.SCS == 1)
002a54   50d3     movf    0xd3, 0x0, 0x0   	MOVF	_OSCCONbits, W
002a56   0b03     andlw   0x03             	ANDLW	0x03
                                           ; #	MOVWF	r0x00
                                           ; #	MOVF	r0x00, W
002a58   0a01     xorlw   0x01             	XORLW	0x01
002a5a   e106     bnz     0x002a68         	BNZ	_00361_DS_
                                           ;	.line	313; F:/OneDrive/API_PINGUINO_18F4550/API/pinguino/core/oscillator.c	return 32768;
002a5c   6ae9     clrf    0xe9, 0x0        	CLRF	FSR0L
002a5e   6af4     clrf    0xf4, 0x0        	CLRF	PRODH
002a60   0e80     movlw   0x80             	MOVLW	0x80
002a62   6ef3     movwf   0xf3, 0x0        	MOVWF	PRODL
002a64   6ae8     clrf    0xe8, 0x0        	CLRF	WREG
002a66   d039     bra     0x002ada         	BRA	_00364_DS_
                                           _00361_DS_:
                                           ;	.line	316; F:/OneDrive/API_PINGUINO_18F4550/API/pinguino/core/oscillator.c	if (OSCCONbits.SCS >= 2)
002a68   50d3     movf    0xd3, 0x0, 0x0   	MOVF	_OSCCONbits, W
002a6a   0b03     andlw   0x03             	ANDLW	0x03
                                           ; #	MOVWF	r0x00
                                           ; #	MOVF	r0x00, W
002a6c   0f80     addlw   0x80             	ADDLW	0x80
002a6e   0f7e     addlw   0x7e             	ADDLW	0x7e
002a70   e330     bnc     0x002ad2         	BNC	_00363_DS_
                                           ;	.line	317; F:/OneDrive/API_PINGUINO_18F4550/API/pinguino/core/oscillator.c	return ircf[OSCCONbits.IRCF];
002a72   50d3     movf    0xd3, 0x0, 0x0   	MOVF	_OSCCONbits, W
002a74   38e8     swapf   0xe8, 0x0, 0x0   	SWAPF	WREG, W
002a76   0b07     andlw   0x07             	ANDLW	0x07
002a78   6ae5     clrf    0xe5, 0x0        	CLRF	POSTDEC1
002a7a   6ee5     movwf   0xe5, 0x0        	MOVWF	POSTDEC1
002a7c   6ae5     clrf    0xe5, 0x0        	CLRF	POSTDEC1
002a7e   0e04     movlw   0x04             	MOVLW	0x04
002a80   6ee5     movwf   0xe5, 0x0        	MOVWF	POSTDEC1
002a82   ec27     call    0x00004e, 0x0call    0x00004e, 0x0 	CALL	__mulint
002a84   f000
002a86   6e00     movwf   0x00, 0x0        	MOVWF	r0x00
002a88   cff3     movff   0xff3, 0x001     	MOVFF	PRODL, r0x01
002a8a   f001
002a8c   0e04     movlw   0x04             	MOVLW	0x04
002a8e   26e1     addwf   0xe1, 0x1, 0x0   	ADDWF	FSR1L, F
002a90   6a02     clrf    0x02, 0x0        	CLRF	r0x02
002a92   0ef6     movlw   0xf6             	MOVLW	LOW(_ircf)
002a94   2600     addwf   0x00, 0x1, 0x0   	ADDWF	r0x00, F
002a96   0e23     movlw   0x23             	MOVLW	HIGH(_ircf)
002a98   2201     addwfc  0x01, 0x1, 0x0   	ADDWFC	r0x01, F
002a9a   0e00     movlw   0x00             	MOVLW	UPPER(_ircf)
002a9c   2202     addwfc  0x02, 0x1, 0x0   	ADDWFC	r0x02, F
002a9e   c000     movff   0x000, 0xff6     	MOVFF	r0x00, TBLPTRL
002aa0   fff6
002aa2   c001     movff   0x001, 0xff7     	MOVFF	r0x01, TBLPTRH
002aa4   fff7
002aa6   c002     movff   0x002, 0xff8     	MOVFF	r0x02, TBLPTRU
002aa8   fff8
002aaa   0009     tblrd*+                  	TBLRD*+	
002aac   cff5     movff   0xff5, 0x000     	MOVFF	TABLAT, r0x00
002aae   f000
002ab0   0009     tblrd*+                  	TBLRD*+	
002ab2   cff5     movff   0xff5, 0x001     	MOVFF	TABLAT, r0x01
002ab4   f001
002ab6   0009     tblrd*+                  	TBLRD*+	
002ab8   cff5     movff   0xff5, 0x002     	MOVFF	TABLAT, r0x02
002aba   f002
002abc   0009     tblrd*+                  	TBLRD*+	
002abe   cff5     movff   0xff5, 0x003     	MOVFF	TABLAT, r0x03
002ac0   f003
002ac2   c003     movff   0x003, 0xfe9     	MOVFF	r0x03, FSR0L
002ac4   ffe9
002ac6   c002     movff   0x002, 0xff4     	MOVFF	r0x02, PRODH
002ac8   fff4
002aca   c001     movff   0x001, 0xff3     	MOVFF	r0x01, PRODL
002acc   fff3
002ace   5000     movf    0x00, 0x0, 0x0   	MOVF	r0x00, W
002ad0   d004     bra     0x002ada         	BRA	_00364_DS_
                                           _00363_DS_:
                                           ;	.line	319; F:/OneDrive/API_PINGUINO_18F4550/API/pinguino/core/oscillator.c	return 0;
002ad2   6ae9     clrf    0xe9, 0x0        	CLRF	FSR0L
002ad4   6af4     clrf    0xf4, 0x0        	CLRF	PRODH
002ad6   6af3     clrf    0xf3, 0x0        	CLRF	PRODL
002ad8   6ae8     clrf    0xe8, 0x0        	CLRF	WREG
                                           _00364_DS_:
002ada   cfe4     movff   0xfe4, 0x005     	MOVFF	PREINC1, r0x05
002adc   f005
002ade   cfe4     movff   0xfe4, 0x004     	MOVFF	PREINC1, r0x04
002ae0   f004
002ae2   cfe4     movff   0xfe4, 0x003     	MOVFF	PREINC1, r0x03
002ae4   f003
002ae6   cfe4     movff   0xfe4, 0x002     	MOVFF	PREINC1, r0x02
002ae8   f002
002aea   cfe4     movff   0xfe4, 0x001     	MOVFF	PREINC1, r0x01
002aec   f001
002aee   cfe4     movff   0xfe4, 0x000     	MOVFF	PREINC1, r0x00
002af0   f000
002af2   0012     return  0x0              	RETURN	
                                           
                                           ; ; Starting pCode block
                                           S_main__System_readFlashMemory	code
                                           _System_readFlashMemory:
                                           ;	.line	190; F:/OneDrive/API_PINGUINO_18F4550/API/pinguino/core/oscillator.c	u16 System_readFlashMemory(u32 address)
0033e0   cfd9     movff   0xfd9, 0xfe5     	MOVFF	FSR2L, POSTDEC1
0033e2   ffe5
0033e4   cfe1     movff   0xfe1, 0xfd9     	MOVFF	FSR1L, FSR2L
0033e6   ffd9
0033e8   c000     movff   0x000, 0xfe5     	MOVFF	r0x00, POSTDEC1
0033ea   ffe5
0033ec   c001     movff   0x001, 0xfe5     	MOVFF	r0x01, POSTDEC1
0033ee   ffe5
0033f0   c002     movff   0x002, 0xfe5     	MOVFF	r0x02, POSTDEC1
0033f2   ffe5
0033f4   c003     movff   0x003, 0xfe5     	MOVFF	r0x03, POSTDEC1
0033f6   ffe5
0033f8   c004     movff   0x004, 0xfe5     	MOVFF	r0x04, POSTDEC1
0033fa   ffe5
0033fc   c005     movff   0x005, 0xfe5     	MOVFF	r0x05, POSTDEC1
0033fe   ffe5
003400   c006     movff   0x006, 0xfe5     	MOVFF	r0x06, POSTDEC1
003402   ffe5
003404   c007     movff   0x007, 0xfe5     	MOVFF	r0x07, POSTDEC1
003406   ffe5
003408   0e02     movlw   0x02             	MOVLW	0x02
00340a   cfdb     movff   0xfdb, 0x000     	MOVFF	PLUSW2, r0x00
00340c   f000
00340e   0e03     movlw   0x03             	MOVLW	0x03
003410   cfdb     movff   0xfdb, 0x001     	MOVFF	PLUSW2, r0x01
003412   f001
003414   0e04     movlw   0x04             	MOVLW	0x04
003416   cfdb     movff   0xfdb, 0x002     	MOVFF	PLUSW2, r0x02
003418   f002
00341a   0e05     movlw   0x05             	MOVLW	0x05
00341c   cfdb     movff   0xfdb, 0x003     	MOVFF	PLUSW2, r0x03
00341e   f003
                                           ;	.line	194; F:/OneDrive/API_PINGUINO_18F4550/API/pinguino/core/oscillator.c	TBLPTRU = address >> 16;
003420   5002     movf    0x02, 0x0, 0x0   	MOVF	r0x02, W
003422   6e04     movwf   0x04, 0x0        	MOVWF	r0x04
003424   5003     movf    0x03, 0x0, 0x0   	MOVF	r0x03, W
003426   6e05     movwf   0x05, 0x0        	MOVWF	r0x05
003428   6a06     clrf    0x06, 0x0        	CLRF	r0x06
00342a   6a07     clrf    0x07, 0x0        	CLRF	r0x07
00342c   5004     movf    0x04, 0x0, 0x0   	MOVF	r0x04, W
00342e   6ef8     movwf   0xf8, 0x0        	MOVWF	_TBLPTRU
                                           ;	.line	195; F:/OneDrive/API_PINGUINO_18F4550/API/pinguino/core/oscillator.c	TBLPTRH = address >> 8;
003430   5001     movf    0x01, 0x0, 0x0   	MOVF	r0x01, W
003432   6e04     movwf   0x04, 0x0        	MOVWF	r0x04
003434   5002     movf    0x02, 0x0, 0x0   	MOVF	r0x02, W
003436   6e05     movwf   0x05, 0x0        	MOVWF	r0x05
003438   5003     movf    0x03, 0x0, 0x0   	MOVF	r0x03, W
00343a   6e06     movwf   0x06, 0x0        	MOVWF	r0x06
00343c   6a07     clrf    0x07, 0x0        	CLRF	r0x07
00343e   5004     movf    0x04, 0x0, 0x0   	MOVF	r0x04, W
003440   6ef7     movwf   0xf7, 0x0        	MOVWF	_TBLPTRH
                                           ;	.line	196; F:/OneDrive/API_PINGUINO_18F4550/API/pinguino/core/oscillator.c	TBLPTRL = address;
003442   5000     movf    0x00, 0x0, 0x0   	MOVF	r0x00, W
003444   6ef6     movwf   0xf6, 0x0        	MOVWF	_TBLPTRL
003446   0009     tblrd*+                  	tblrd*+
                                           ;	.line	198; F:/OneDrive/API_PINGUINO_18F4550/API/pinguino/core/oscillator.c	l8 = TABLAT;
003448   cff5     movff   0xff5, 0x000     	MOVFF	_TABLAT, r0x00
00344a   f000
00344c   0009     tblrd*+                  	tblrd*+
                                           ;	.line	200; F:/OneDrive/API_PINGUINO_18F4550/API/pinguino/core/oscillator.c	h8 = TABLAT;
00344e   cff5     movff   0xff5, 0x001     	MOVFF	_TABLAT, r0x01
003450   f001
                                           ;	.line	202; F:/OneDrive/API_PINGUINO_18F4550/API/pinguino/core/oscillator.c	return ((h8 << 8) + l8);
003452   6a02     clrf    0x02, 0x0        	CLRF	r0x02
003454   5001     movf    0x01, 0x0, 0x0   	MOVF	r0x01, W
003456   6e04     movwf   0x04, 0x0        	MOVWF	r0x04
003458   6a03     clrf    0x03, 0x0        	CLRF	r0x03
00345a   6a05     clrf    0x05, 0x0        	CLRF	r0x05
00345c   5000     movf    0x00, 0x0, 0x0   	MOVF	r0x00, W
00345e   2603     addwf   0x03, 0x1, 0x0   	ADDWF	r0x03, F
003460   5005     movf    0x05, 0x0, 0x0   	MOVF	r0x05, W
003462   2204     addwfc  0x04, 0x1, 0x0   	ADDWFC	r0x04, F
003464   c004     movff   0x004, 0xff3     	MOVFF	r0x04, PRODL
003466   fff3
003468   5003     movf    0x03, 0x0, 0x0   	MOVF	r0x03, W
00346a   cfe4     movff   0xfe4, 0x007     	MOVFF	PREINC1, r0x07
00346c   f007
00346e   cfe4     movff   0xfe4, 0x006     	MOVFF	PREINC1, r0x06
003470   f006
003472   cfe4     movff   0xfe4, 0x005     	MOVFF	PREINC1, r0x05
003474   f005
003476   cfe4     movff   0xfe4, 0x004     	MOVFF	PREINC1, r0x04
003478   f004
00347a   cfe4     movff   0xfe4, 0x003     	MOVFF	PREINC1, r0x03
00347c   f003
00347e   cfe4     movff   0xfe4, 0x002     	MOVFF	PREINC1, r0x02
003480   f002
003482   cfe4     movff   0xfe4, 0x001     	MOVFF	PREINC1, r0x01
003484   f001
003486   cfe4     movff   0xfe4, 0x000     	MOVFF	PREINC1, r0x00
003488   f000
00348a   cfe4     movff   0xfe4, 0xfd9     	MOVFF	PREINC1, FSR2L
00348c   ffd9
00348e   0012     return  0x0              	RETURN	
                                           
                                           ; ; Starting pCode block
                                           S_main__pinmode	code
                                           _pinmode:
                                           ;	.line	44; F:/OneDrive/API_PINGUINO_18F4550/API/pinguino/core/digitalp.c	void pinmode(u8 pin, u8 state)
0026b0   cfd9     movff   0xfd9, 0xfe5     	MOVFF	FSR2L, POSTDEC1
0026b2   ffe5
0026b4   cfe1     movff   0xfe1, 0xfd9     	MOVFF	FSR1L, FSR2L
0026b6   ffd9
0026b8   c000     movff   0x000, 0xfe5     	MOVFF	r0x00, POSTDEC1
0026ba   ffe5
0026bc   c001     movff   0x001, 0xfe5     	MOVFF	r0x01, POSTDEC1
0026be   ffe5
0026c0   c002     movff   0x002, 0xfe5     	MOVFF	r0x02, POSTDEC1
0026c2   ffe5
0026c4   c003     movff   0x003, 0xfe5     	MOVFF	r0x03, POSTDEC1
0026c6   ffe5
0026c8   c004     movff   0x004, 0xfe5     	MOVFF	r0x04, POSTDEC1
0026ca   ffe5
0026cc   0e02     movlw   0x02             	MOVLW	0x02
0026ce   cfdb     movff   0xfdb, 0x000     	MOVFF	PLUSW2, r0x00
0026d0   f000
0026d2   0e03     movlw   0x03             	MOVLW	0x03
0026d4   cfdb     movff   0xfdb, 0x001     	MOVFF	PLUSW2, r0x01
0026d6   f001
                                           ;	.line	46; F:/OneDrive/API_PINGUINO_18F4550/API/pinguino/core/digitalp.c	switch (port[pin])
0026d8   0ed0     movlw   0xd0             	MOVLW	LOW(_port)
0026da   2400     addwf   0x00, 0x0, 0x0   	ADDWF	r0x00, W
0026dc   6e02     movwf   0x02, 0x0        	MOVWF	r0x02
0026de   6a03     clrf    0x03, 0x0        	CLRF	r0x03
0026e0   0e23     movlw   0x23             	MOVLW	HIGH(_port)
0026e2   2203     addwfc  0x03, 0x1, 0x0   	ADDWFC	r0x03, F
0026e4   6a04     clrf    0x04, 0x0        	CLRF	r0x04
0026e6   0e00     movlw   0x00             	MOVLW	UPPER(_port)
0026e8   2204     addwfc  0x04, 0x1, 0x0   	ADDWFC	r0x04, F
0026ea   c002     movff   0x002, 0xff6     	MOVFF	r0x02, TBLPTRL
0026ec   fff6
0026ee   c003     movff   0x003, 0xff7     	MOVFF	r0x03, TBLPTRH
0026f0   fff7
0026f2   c004     movff   0x004, 0xff8     	MOVFF	r0x04, TBLPTRU
0026f4   fff8
0026f6   0009     tblrd*+                  	TBLRD*+	
0026f8   cff5     movff   0xff5, 0x002     	MOVFF	TABLAT, r0x02
0026fa   f002
0026fc   0e05     movlw   0x05             	MOVLW	0x05
0026fe   5c02     subwf   0x02, 0x0, 0x0   	SUBWF	r0x02, W
002700   b0d8     btfsc   0xd8, 0x0, 0x0   	BTFSC	STATUS, 0
002702   d0f8     bra     0x0028f4         	BRA	_00322_DS_
002704   6afa     clrf    0xfa, 0x0        	CLRF	PCLATH
002706   6afb     clrf    0xfb, 0x0        	CLRF	PCLATU
002708   3402     rlcf    0x02, 0x0, 0x0   	RLCF	r0x02, W
00270a   36fa     rlcf    0xfa, 0x1, 0x0   	RLCF	PCLATH, F
00270c   34e8     rlcf    0xe8, 0x0, 0x0   	RLCF	WREG, W
00270e   36fa     rlcf    0xfa, 0x1, 0x0   	RLCF	PCLATH, F
002710   0bfc     andlw   0xfc             	ANDLW	0xfc
002712   0f22     addlw   0x22             	ADDLW	LOW(_00343_DS_)
002714   6ee5     movwf   0xe5, 0x0        	MOVWF	POSTDEC1
002716   0e27     movlw   0x27             	MOVLW	HIGH(_00343_DS_)
002718   22fa     addwfc  0xfa, 0x1, 0x0   	ADDWFC	PCLATH, F
00271a   0e00     movlw   0x00             	MOVLW	UPPER(_00343_DS_)
00271c   22fb     addwfc  0xfb, 0x1, 0x0   	ADDWFC	PCLATU, F
00271e   50e4     movf    0xe4, 0x0, 0x0   	MOVF	PREINC1, W
002720   6ef9     movwf   0xf9, 0x0        	MOVWF	PCL
                                           _00343_DS_:
002722   ef9b     goto    0x002736         	GOTO	_00301_DS_
002724   f013
002726   efc8     goto    0x002790         	GOTO	_00305_DS_
002728   f013
00272a   eff5     goto    0x0027ea         	GOTO	_00309_DS_
00272c   f013
00272e   ef22     goto    0x002844         	GOTO	_00313_DS_
002730   f014
002732   ef4f     goto    0x00289e         	GOTO	_00317_DS_
002734   f014
                                           _00301_DS_:
                                           ;	.line	49; F:/OneDrive/API_PINGUINO_18F4550/API/pinguino/core/digitalp.c	if (state) TRISA=TRISA | mask[pin];
002736   5001     movf    0x01, 0x0, 0x0   	MOVF	r0x01, W
002738   e015     bz      0x002764         	BZ	_00303_DS_
00273a   0eb2     movlw   0xb2             	MOVLW	LOW(_mask)
00273c   2400     addwf   0x00, 0x0, 0x0   	ADDWF	r0x00, W
00273e   6e02     movwf   0x02, 0x0        	MOVWF	r0x02
002740   6a03     clrf    0x03, 0x0        	CLRF	r0x03
002742   0e23     movlw   0x23             	MOVLW	HIGH(_mask)
002744   2203     addwfc  0x03, 0x1, 0x0   	ADDWFC	r0x03, F
002746   6a04     clrf    0x04, 0x0        	CLRF	r0x04
002748   0e00     movlw   0x00             	MOVLW	UPPER(_mask)
00274a   2204     addwfc  0x04, 0x1, 0x0   	ADDWFC	r0x04, F
00274c   c002     movff   0x002, 0xff6     	MOVFF	r0x02, TBLPTRL
00274e   fff6
002750   c003     movff   0x003, 0xff7     	MOVFF	r0x03, TBLPTRH
002752   fff7
002754   c004     movff   0x004, 0xff8     	MOVFF	r0x04, TBLPTRU
002756   fff8
002758   0009     tblrd*+                  	TBLRD*+	
00275a   cff5     movff   0xff5, 0x002     	MOVFF	TABLAT, r0x02
00275c   f002
00275e   5002     movf    0x02, 0x0, 0x0   	MOVF	r0x02, W
002760   1292     iorwf   0x92, 0x1, 0x0   	IORWF	_TRISA, F
002762   d0c8     bra     0x0028f4         	BRA	_00322_DS_
                                           _00303_DS_:
                                           ;	.line	50; F:/OneDrive/API_PINGUINO_18F4550/API/pinguino/core/digitalp.c	else TRISA=TRISA & (255-mask[pin]);
002764   0eb2     movlw   0xb2             	MOVLW	LOW(_mask)
002766   2400     addwf   0x00, 0x0, 0x0   	ADDWF	r0x00, W
002768   6e02     movwf   0x02, 0x0        	MOVWF	r0x02
00276a   6a03     clrf    0x03, 0x0        	CLRF	r0x03
00276c   0e23     movlw   0x23             	MOVLW	HIGH(_mask)
00276e   2203     addwfc  0x03, 0x1, 0x0   	ADDWFC	r0x03, F
002770   6a04     clrf    0x04, 0x0        	CLRF	r0x04
002772   0e00     movlw   0x00             	MOVLW	UPPER(_mask)
002774   2204     addwfc  0x04, 0x1, 0x0   	ADDWFC	r0x04, F
002776   c002     movff   0x002, 0xff6     	MOVFF	r0x02, TBLPTRL
002778   fff6
00277a   c003     movff   0x003, 0xff7     	MOVFF	r0x03, TBLPTRH
00277c   fff7
00277e   c004     movff   0x004, 0xff8     	MOVFF	r0x04, TBLPTRU
002780   fff8
002782   0009     tblrd*+                  	TBLRD*+	
002784   cff5     movff   0xff5, 0x002     	MOVFF	TABLAT, r0x02
002786   f002
002788   5002     movf    0x02, 0x0, 0x0   	MOVF	r0x02, W
00278a   08ff     sublw   0xff             	SUBLW	0xff
                                           ; #	MOVWF	r0x02
                                           ; #	MOVF	r0x02, W
00278c   1692     andwf   0x92, 0x1, 0x0   	ANDWF	_TRISA, F
                                           ;	.line	51; F:/OneDrive/API_PINGUINO_18F4550/API/pinguino/core/digitalp.c	break;
00278e   d0b2     bra     0x0028f4         	BRA	_00322_DS_
                                           _00305_DS_:
                                           ;	.line	53; F:/OneDrive/API_PINGUINO_18F4550/API/pinguino/core/digitalp.c	if (state) TRISB=TRISB | mask[pin];
002790   5001     movf    0x01, 0x0, 0x0   	MOVF	r0x01, W
002792   e015     bz      0x0027be         	BZ	_00307_DS_
002794   0eb2     movlw   0xb2             	MOVLW	LOW(_mask)
002796   2400     addwf   0x00, 0x0, 0x0   	ADDWF	r0x00, W
002798   6e02     movwf   0x02, 0x0        	MOVWF	r0x02
00279a   6a03     clrf    0x03, 0x0        	CLRF	r0x03
00279c   0e23     movlw   0x23             	MOVLW	HIGH(_mask)
00279e   2203     addwfc  0x03, 0x1, 0x0   	ADDWFC	r0x03, F
0027a0   6a04     clrf    0x04, 0x0        	CLRF	r0x04
0027a2   0e00     movlw   0x00             	MOVLW	UPPER(_mask)
0027a4   2204     addwfc  0x04, 0x1, 0x0   	ADDWFC	r0x04, F
0027a6   c002     movff   0x002, 0xff6     	MOVFF	r0x02, TBLPTRL
0027a8   fff6
0027aa   c003     movff   0x003, 0xff7     	MOVFF	r0x03, TBLPTRH
0027ac   fff7
0027ae   c004     movff   0x004, 0xff8     	MOVFF	r0x04, TBLPTRU
0027b0   fff8
0027b2   0009     tblrd*+                  	TBLRD*+	
0027b4   cff5     movff   0xff5, 0x002     	MOVFF	TABLAT, r0x02
0027b6   f002
0027b8   5002     movf    0x02, 0x0, 0x0   	MOVF	r0x02, W
0027ba   1293     iorwf   0x93, 0x1, 0x0   	IORWF	_TRISB, F
0027bc   d09b     bra     0x0028f4         	BRA	_00322_DS_
                                           _00307_DS_:
                                           ;	.line	54; F:/OneDrive/API_PINGUINO_18F4550/API/pinguino/core/digitalp.c	else TRISB=TRISB & (255-mask[pin]);
0027be   0eb2     movlw   0xb2             	MOVLW	LOW(_mask)
0027c0   2400     addwf   0x00, 0x0, 0x0   	ADDWF	r0x00, W
0027c2   6e02     movwf   0x02, 0x0        	MOVWF	r0x02
0027c4   6a03     clrf    0x03, 0x0        	CLRF	r0x03
0027c6   0e23     movlw   0x23             	MOVLW	HIGH(_mask)
0027c8   2203     addwfc  0x03, 0x1, 0x0   	ADDWFC	r0x03, F
0027ca   6a04     clrf    0x04, 0x0        	CLRF	r0x04
0027cc   0e00     movlw   0x00             	MOVLW	UPPER(_mask)
0027ce   2204     addwfc  0x04, 0x1, 0x0   	ADDWFC	r0x04, F
0027d0   c002     movff   0x002, 0xff6     	MOVFF	r0x02, TBLPTRL
0027d2   fff6
0027d4   c003     movff   0x003, 0xff7     	MOVFF	r0x03, TBLPTRH
0027d6   fff7
0027d8   c004     movff   0x004, 0xff8     	MOVFF	r0x04, TBLPTRU
0027da   fff8
0027dc   0009     tblrd*+                  	TBLRD*+	
0027de   cff5     movff   0xff5, 0x002     	MOVFF	TABLAT, r0x02
0027e0   f002
0027e2   5002     movf    0x02, 0x0, 0x0   	MOVF	r0x02, W
0027e4   08ff     sublw   0xff             	SUBLW	0xff
                                           ; #	MOVWF	r0x02
                                           ; #	MOVF	r0x02, W
0027e6   1693     andwf   0x93, 0x1, 0x0   	ANDWF	_TRISB, F
                                           ;	.line	55; F:/OneDrive/API_PINGUINO_18F4550/API/pinguino/core/digitalp.c	break;
0027e8   d085     bra     0x0028f4         	BRA	_00322_DS_
                                           _00309_DS_:
                                           ;	.line	57; F:/OneDrive/API_PINGUINO_18F4550/API/pinguino/core/digitalp.c	if (state) TRISC=TRISC | mask[pin];
0027ea   5001     movf    0x01, 0x0, 0x0   	MOVF	r0x01, W
0027ec   e015     bz      0x002818         	BZ	_00311_DS_
0027ee   0eb2     movlw   0xb2             	MOVLW	LOW(_mask)
0027f0   2400     addwf   0x00, 0x0, 0x0   	ADDWF	r0x00, W
0027f2   6e02     movwf   0x02, 0x0        	MOVWF	r0x02
0027f4   6a03     clrf    0x03, 0x0        	CLRF	r0x03
0027f6   0e23     movlw   0x23             	MOVLW	HIGH(_mask)
0027f8   2203     addwfc  0x03, 0x1, 0x0   	ADDWFC	r0x03, F
0027fa   6a04     clrf    0x04, 0x0        	CLRF	r0x04
0027fc   0e00     movlw   0x00             	MOVLW	UPPER(_mask)
0027fe   2204     addwfc  0x04, 0x1, 0x0   	ADDWFC	r0x04, F
002800   c002     movff   0x002, 0xff6     	MOVFF	r0x02, TBLPTRL
002802   fff6
002804   c003     movff   0x003, 0xff7     	MOVFF	r0x03, TBLPTRH
002806   fff7
002808   c004     movff   0x004, 0xff8     	MOVFF	r0x04, TBLPTRU
00280a   fff8
00280c   0009     tblrd*+                  	TBLRD*+	
00280e   cff5     movff   0xff5, 0x002     	MOVFF	TABLAT, r0x02
002810   f002
002812   5002     movf    0x02, 0x0, 0x0   	MOVF	r0x02, W
002814   1294     iorwf   0x94, 0x1, 0x0   	IORWF	_TRISC, F
002816   d06e     bra     0x0028f4         	BRA	_00322_DS_
                                           _00311_DS_:
                                           ;	.line	58; F:/OneDrive/API_PINGUINO_18F4550/API/pinguino/core/digitalp.c	else TRISC=TRISC & (255-mask[pin]);
002818   0eb2     movlw   0xb2             	MOVLW	LOW(_mask)
00281a   2400     addwf   0x00, 0x0, 0x0   	ADDWF	r0x00, W
00281c   6e02     movwf   0x02, 0x0        	MOVWF	r0x02
00281e   6a03     clrf    0x03, 0x0        	CLRF	r0x03
002820   0e23     movlw   0x23             	MOVLW	HIGH(_mask)
002822   2203     addwfc  0x03, 0x1, 0x0   	ADDWFC	r0x03, F
002824   6a04     clrf    0x04, 0x0        	CLRF	r0x04
002826   0e00     movlw   0x00             	MOVLW	UPPER(_mask)
002828   2204     addwfc  0x04, 0x1, 0x0   	ADDWFC	r0x04, F
00282a   c002     movff   0x002, 0xff6     	MOVFF	r0x02, TBLPTRL
00282c   fff6
00282e   c003     movff   0x003, 0xff7     	MOVFF	r0x03, TBLPTRH
002830   fff7
002832   c004     movff   0x004, 0xff8     	MOVFF	r0x04, TBLPTRU
002834   fff8
002836   0009     tblrd*+                  	TBLRD*+	
002838   cff5     movff   0xff5, 0x002     	MOVFF	TABLAT, r0x02
00283a   f002
00283c   5002     movf    0x02, 0x0, 0x0   	MOVF	r0x02, W
00283e   08ff     sublw   0xff             	SUBLW	0xff
                                           ; #	MOVWF	r0x02
                                           ; #	MOVF	r0x02, W
002840   1694     andwf   0x94, 0x1, 0x0   	ANDWF	_TRISC, F
                                           ;	.line	59; F:/OneDrive/API_PINGUINO_18F4550/API/pinguino/core/digitalp.c	break;
002842   d058     bra     0x0028f4         	BRA	_00322_DS_
                                           _00313_DS_:
                                           ;	.line	64; F:/OneDrive/API_PINGUINO_18F4550/API/pinguino/core/digitalp.c	if (state) TRISD=TRISD | mask[pin];
002844   5001     movf    0x01, 0x0, 0x0   	MOVF	r0x01, W
002846   e015     bz      0x002872         	BZ	_00315_DS_
002848   0eb2     movlw   0xb2             	MOVLW	LOW(_mask)
00284a   2400     addwf   0x00, 0x0, 0x0   	ADDWF	r0x00, W
00284c   6e02     movwf   0x02, 0x0        	MOVWF	r0x02
00284e   6a03     clrf    0x03, 0x0        	CLRF	r0x03
002850   0e23     movlw   0x23             	MOVLW	HIGH(_mask)
002852   2203     addwfc  0x03, 0x1, 0x0   	ADDWFC	r0x03, F
002854   6a04     clrf    0x04, 0x0        	CLRF	r0x04
002856   0e00     movlw   0x00             	MOVLW	UPPER(_mask)
002858   2204     addwfc  0x04, 0x1, 0x0   	ADDWFC	r0x04, F
00285a   c002     movff   0x002, 0xff6     	MOVFF	r0x02, TBLPTRL
00285c   fff6
00285e   c003     movff   0x003, 0xff7     	MOVFF	r0x03, TBLPTRH
002860   fff7
002862   c004     movff   0x004, 0xff8     	MOVFF	r0x04, TBLPTRU
002864   fff8
002866   0009     tblrd*+                  	TBLRD*+	
002868   cff5     movff   0xff5, 0x002     	MOVFF	TABLAT, r0x02
00286a   f002
00286c   5002     movf    0x02, 0x0, 0x0   	MOVF	r0x02, W
00286e   1295     iorwf   0x95, 0x1, 0x0   	IORWF	_TRISD, F
002870   d041     bra     0x0028f4         	BRA	_00322_DS_
                                           _00315_DS_:
                                           ;	.line	65; F:/OneDrive/API_PINGUINO_18F4550/API/pinguino/core/digitalp.c	else TRISD=TRISD & (255-mask[pin]);
002872   0eb2     movlw   0xb2             	MOVLW	LOW(_mask)
002874   2400     addwf   0x00, 0x0, 0x0   	ADDWF	r0x00, W
002876   6e02     movwf   0x02, 0x0        	MOVWF	r0x02
002878   6a03     clrf    0x03, 0x0        	CLRF	r0x03
00287a   0e23     movlw   0x23             	MOVLW	HIGH(_mask)
00287c   2203     addwfc  0x03, 0x1, 0x0   	ADDWFC	r0x03, F
00287e   6a04     clrf    0x04, 0x0        	CLRF	r0x04
002880   0e00     movlw   0x00             	MOVLW	UPPER(_mask)
002882   2204     addwfc  0x04, 0x1, 0x0   	ADDWFC	r0x04, F
002884   c002     movff   0x002, 0xff6     	MOVFF	r0x02, TBLPTRL
002886   fff6
002888   c003     movff   0x003, 0xff7     	MOVFF	r0x03, TBLPTRH
00288a   fff7
00288c   c004     movff   0x004, 0xff8     	MOVFF	r0x04, TBLPTRU
00288e   fff8
002890   0009     tblrd*+                  	TBLRD*+	
002892   cff5     movff   0xff5, 0x002     	MOVFF	TABLAT, r0x02
002894   f002
002896   5002     movf    0x02, 0x0, 0x0   	MOVF	r0x02, W
002898   08ff     sublw   0xff             	SUBLW	0xff
                                           ; #	MOVWF	r0x02
                                           ; #	MOVF	r0x02, W
00289a   1695     andwf   0x95, 0x1, 0x0   	ANDWF	_TRISD, F
                                           ;	.line	66; F:/OneDrive/API_PINGUINO_18F4550/API/pinguino/core/digitalp.c	break;
00289c   d02b     bra     0x0028f4         	BRA	_00322_DS_
                                           _00317_DS_:
                                           ;	.line	68; F:/OneDrive/API_PINGUINO_18F4550/API/pinguino/core/digitalp.c	if (state) TRISE=TRISE | mask[pin];
00289e   5001     movf    0x01, 0x0, 0x0   	MOVF	r0x01, W
0028a0   e015     bz      0x0028cc         	BZ	_00319_DS_
0028a2   0eb2     movlw   0xb2             	MOVLW	LOW(_mask)
0028a4   2400     addwf   0x00, 0x0, 0x0   	ADDWF	r0x00, W
0028a6   6e01     movwf   0x01, 0x0        	MOVWF	r0x01
0028a8   6a02     clrf    0x02, 0x0        	CLRF	r0x02
0028aa   0e23     movlw   0x23             	MOVLW	HIGH(_mask)
0028ac   2202     addwfc  0x02, 0x1, 0x0   	ADDWFC	r0x02, F
0028ae   6a03     clrf    0x03, 0x0        	CLRF	r0x03
0028b0   0e00     movlw   0x00             	MOVLW	UPPER(_mask)
0028b2   2203     addwfc  0x03, 0x1, 0x0   	ADDWFC	r0x03, F
0028b4   c001     movff   0x001, 0xff6     	MOVFF	r0x01, TBLPTRL
0028b6   fff6
0028b8   c002     movff   0x002, 0xff7     	MOVFF	r0x02, TBLPTRH
0028ba   fff7
0028bc   c003     movff   0x003, 0xff8     	MOVFF	r0x03, TBLPTRU
0028be   fff8
0028c0   0009     tblrd*+                  	TBLRD*+	
0028c2   cff5     movff   0xff5, 0x001     	MOVFF	TABLAT, r0x01
0028c4   f001
0028c6   5001     movf    0x01, 0x0, 0x0   	MOVF	r0x01, W
0028c8   1296     iorwf   0x96, 0x1, 0x0   	IORWF	_TRISE, F
0028ca   d014     bra     0x0028f4         	BRA	_00322_DS_
                                           _00319_DS_:
                                           ;	.line	69; F:/OneDrive/API_PINGUINO_18F4550/API/pinguino/core/digitalp.c	else TRISE=TRISE & (255-mask[pin]);
0028cc   6a01     clrf    0x01, 0x0        	CLRF	r0x01
0028ce   6a02     clrf    0x02, 0x0        	CLRF	r0x02
0028d0   0eb2     movlw   0xb2             	MOVLW	LOW(_mask)
0028d2   2600     addwf   0x00, 0x1, 0x0   	ADDWF	r0x00, F
0028d4   0e23     movlw   0x23             	MOVLW	HIGH(_mask)
0028d6   2201     addwfc  0x01, 0x1, 0x0   	ADDWFC	r0x01, F
0028d8   0e00     movlw   0x00             	MOVLW	UPPER(_mask)
0028da   2202     addwfc  0x02, 0x1, 0x0   	ADDWFC	r0x02, F
0028dc   c000     movff   0x000, 0xff6     	MOVFF	r0x00, TBLPTRL
0028de   fff6
0028e0   c001     movff   0x001, 0xff7     	MOVFF	r0x01, TBLPTRH
0028e2   fff7
0028e4   c002     movff   0x002, 0xff8     	MOVFF	r0x02, TBLPTRU
0028e6   fff8
0028e8   0009     tblrd*+                  	TBLRD*+	
0028ea   cff5     movff   0xff5, 0x000     	MOVFF	TABLAT, r0x00
0028ec   f000
0028ee   5000     movf    0x00, 0x0, 0x0   	MOVF	r0x00, W
0028f0   08ff     sublw   0xff             	SUBLW	0xff
                                           ; #	MOVWF	r0x00
                                           ; #	MOVF	r0x00, W
0028f2   1696     andwf   0x96, 0x1, 0x0   	ANDWF	_TRISE, F
                                           _00322_DS_:
                                           ;	.line	72; F:/OneDrive/API_PINGUINO_18F4550/API/pinguino/core/digitalp.c	}
0028f4   cfe4     movff   0xfe4, 0x004     	MOVFF	PREINC1, r0x04
0028f6   f004
0028f8   cfe4     movff   0xfe4, 0x003     	MOVFF	PREINC1, r0x03
0028fa   f003
0028fc   cfe4     movff   0xfe4, 0x002     	MOVFF	PREINC1, r0x02
0028fe   f002
002900   cfe4     movff   0xfe4, 0x001     	MOVFF	PREINC1, r0x01
002902   f001
002904   cfe4     movff   0xfe4, 0x000     	MOVFF	PREINC1, r0x00
002906   f000
002908   cfe4     movff   0xfe4, 0xfd9     	MOVFF	PREINC1, FSR2L
00290a   ffd9
00290c   0012     return  0x0              	RETURN	
                                           
                                           ; ; Starting pCode block
                                           S_main__BULK_available	code
                                           _BULK_available:
                                           ;	.line	145; F:/OneDrive/API_PINGUINO_18F4550/API/pinguino/libraries/__bulk.c	return(usbavailable());
00201a   ecf7     call    0x003bee, 0x0call    0x003bee, 0x0 	CALL	_usbavailable
00201c   f01d
                                           ; #	MOVWF	r0x00
                                           ; #	MOVF	r0x00, W
                                           ; #; info ==> [localregs] exit begin
                                           
00201e   0012     return  0x0              	RETURN	
                                           
                                           ; ; Starting pCode block
                                           S_main__BULK_read	code
                                           _BULK_read:
                                           ;	.line	138; F:/OneDrive/API_PINGUINO_18F4550/API/pinguino/libraries/__bulk.c	u8 BULK_read(u8 *rxpointer)
003a68   cfd9     movff   0xfd9, 0xfe5     	MOVFF	FSR2L, POSTDEC1
003a6a   ffe5
003a6c   cfe1     movff   0xfe1, 0xfd9     	MOVFF	FSR1L, FSR2L
003a6e   ffd9
003a70   c000     movff   0x000, 0xfe5     	MOVFF	r0x00, POSTDEC1
003a72   ffe5
003a74   c001     movff   0x001, 0xfe5     	MOVFF	r0x01, POSTDEC1
003a76   ffe5
003a78   c002     movff   0x002, 0xfe5     	MOVFF	r0x02, POSTDEC1
003a7a   ffe5
003a7c   0e02     movlw   0x02             	MOVLW	0x02
003a7e   cfdb     movff   0xfdb, 0x000     	MOVFF	PLUSW2, r0x00
003a80   f000
003a82   0e03     movlw   0x03             	MOVLW	0x03
003a84   cfdb     movff   0xfdb, 0x001     	MOVFF	PLUSW2, r0x01
003a86   f001
003a88   0e04     movlw   0x04             	MOVLW	0x04
003a8a   cfdb     movff   0xfdb, 0x002     	MOVFF	PLUSW2, r0x02
003a8c   f002
                                           ;	.line	140; F:/OneDrive/API_PINGUINO_18F4550/API/pinguino/libraries/__bulk.c	return(usbreceive(rxpointer)); // one only character is returned
003a8e   5002     movf    0x02, 0x0, 0x0   	MOVF	r0x02, W
003a90   6ee5     movwf   0xe5, 0x0        	MOVWF	POSTDEC1
003a92   5001     movf    0x01, 0x0, 0x0   	MOVF	r0x01, W
003a94   6ee5     movwf   0xe5, 0x0        	MOVWF	POSTDEC1
003a96   5000     movf    0x00, 0x0, 0x0   	MOVF	r0x00, W
003a98   6ee5     movwf   0xe5, 0x0        	MOVWF	POSTDEC1
003a9a   ec2c     call    0x003258, 0x0call    0x003258, 0x0 	CALL	_usbreceive
003a9c   f019
003a9e   6e00     movwf   0x00, 0x0        	MOVWF	r0x00
003aa0   0e03     movlw   0x03             	MOVLW	0x03
003aa2   26e1     addwf   0xe1, 0x1, 0x0   	ADDWF	FSR1L, F
003aa4   5000     movf    0x00, 0x0, 0x0   	MOVF	r0x00, W
003aa6   cfe4     movff   0xfe4, 0x002     	MOVFF	PREINC1, r0x02
003aa8   f002
003aaa   cfe4     movff   0xfe4, 0x001     	MOVFF	PREINC1, r0x01
003aac   f001
003aae   cfe4     movff   0xfe4, 0x000     	MOVFF	PREINC1, r0x00
003ab0   f000
003ab2   cfe4     movff   0xfe4, 0xfd9     	MOVFF	PREINC1, FSR2L
003ab4   ffd9
003ab6   0012     return  0x0              	RETURN	
                                           
                                           ; ; Starting pCode block
                                           S_main__BULK_write	code
                                           _BULK_write:
                                           ;	.line	133; F:/OneDrive/API_PINGUINO_18F4550/API/pinguino/libraries/__bulk.c	void BULK_write(u8 *txpointer, u8 length)
00395c   cfd9     movff   0xfd9, 0xfe5     	MOVFF	FSR2L, POSTDEC1
00395e   ffe5
003960   cfe1     movff   0xfe1, 0xfd9     	MOVFF	FSR1L, FSR2L
003962   ffd9
003964   c000     movff   0x000, 0xfe5     	MOVFF	r0x00, POSTDEC1
003966   ffe5
003968   c001     movff   0x001, 0xfe5     	MOVFF	r0x01, POSTDEC1
00396a   ffe5
00396c   c002     movff   0x002, 0xfe5     	MOVFF	r0x02, POSTDEC1
00396e   ffe5
003970   c003     movff   0x003, 0xfe5     	MOVFF	r0x03, POSTDEC1
003972   ffe5
003974   0e02     movlw   0x02             	MOVLW	0x02
003976   cfdb     movff   0xfdb, 0x000     	MOVFF	PLUSW2, r0x00
003978   f000
00397a   0e03     movlw   0x03             	MOVLW	0x03
00397c   cfdb     movff   0xfdb, 0x001     	MOVFF	PLUSW2, r0x01
00397e   f001
003980   0e04     movlw   0x04             	MOVLW	0x04
003982   cfdb     movff   0xfdb, 0x002     	MOVFF	PLUSW2, r0x02
003984   f002
003986   0e05     movlw   0x05             	MOVLW	0x05
003988   cfdb     movff   0xfdb, 0x003     	MOVFF	PLUSW2, r0x03
00398a   f003
                                           ;	.line	135; F:/OneDrive/API_PINGUINO_18F4550/API/pinguino/libraries/__bulk.c	usbsend(txpointer,length);
00398c   5003     movf    0x03, 0x0, 0x0   	MOVF	r0x03, W
00398e   6ee5     movwf   0xe5, 0x0        	MOVWF	POSTDEC1
003990   5002     movf    0x02, 0x0, 0x0   	MOVF	r0x02, W
003992   6ee5     movwf   0xe5, 0x0        	MOVWF	POSTDEC1
003994   5001     movf    0x01, 0x0, 0x0   	MOVF	r0x01, W
003996   6ee5     movwf   0xe5, 0x0        	MOVWF	POSTDEC1
003998   5000     movf    0x00, 0x0, 0x0   	MOVF	r0x00, W
00399a   6ee5     movwf   0xe5, 0x0        	MOVWF	POSTDEC1
00399c   ec84     call    0x003b08, 0x0call    0x003b08, 0x0 	CALL	_usbsend
00399e   f01d
0039a0   0e04     movlw   0x04             	MOVLW	0x04
0039a2   26e1     addwf   0xe1, 0x1, 0x0   	ADDWF	FSR1L, F
0039a4   cfe4     movff   0xfe4, 0x003     	MOVFF	PREINC1, r0x03
0039a6   f003
0039a8   cfe4     movff   0xfe4, 0x002     	MOVFF	PREINC1, r0x02
0039aa   f002
0039ac   cfe4     movff   0xfe4, 0x001     	MOVFF	PREINC1, r0x01
0039ae   f001
0039b0   cfe4     movff   0xfe4, 0x000     	MOVFF	PREINC1, r0x00
0039b2   f000
0039b4   cfe4     movff   0xfe4, 0xfd9     	MOVFF	PREINC1, FSR2L
0039b6   ffd9
0039b8   0012     return  0x0              	RETURN	
                                           
                                           ; ; Starting pCode block
                                           S_main__usbgets	code
                                           _usbgets:
                                           ;	.line	235; F:/OneDrive/API_PINGUINO_18F4550/API/pinguino/libraries/usb.c	return(usbread()); // one only character is returned
003d14   ec5c     call    0x003ab8, 0x0call    0x003ab8, 0x0 	CALL	_usbread
003d16   f01d
                                           ; #	MOVWF	r0x00
                                           ; #	MOVF	r0x00, W
                                           ; #; info ==> [localregs] exit begin
                                           
003d18   0012     return  0x0              	RETURN	
                                           
                                           ; ; Starting pCode block
                                           S_main__usbputs	code
                                           _usbputs:
                                           ;	.line	228; F:/OneDrive/API_PINGUINO_18F4550/API/pinguino/libraries/usb.c	void usbputs(u8 *txpointer, u8 length)
0039ba   cfd9     movff   0xfd9, 0xfe5     	MOVFF	FSR2L, POSTDEC1
0039bc   ffe5
0039be   cfe1     movff   0xfe1, 0xfd9     	MOVFF	FSR1L, FSR2L
0039c0   ffd9
0039c2   c000     movff   0x000, 0xfe5     	MOVFF	r0x00, POSTDEC1
0039c4   ffe5
0039c6   c001     movff   0x001, 0xfe5     	MOVFF	r0x01, POSTDEC1
0039c8   ffe5
0039ca   c002     movff   0x002, 0xfe5     	MOVFF	r0x02, POSTDEC1
0039cc   ffe5
0039ce   c003     movff   0x003, 0xfe5     	MOVFF	r0x03, POSTDEC1
0039d0   ffe5
0039d2   0e02     movlw   0x02             	MOVLW	0x02
0039d4   cfdb     movff   0xfdb, 0x000     	MOVFF	PLUSW2, r0x00
0039d6   f000
0039d8   0e03     movlw   0x03             	MOVLW	0x03
0039da   cfdb     movff   0xfdb, 0x001     	MOVFF	PLUSW2, r0x01
0039dc   f001
0039de   0e04     movlw   0x04             	MOVLW	0x04
0039e0   cfdb     movff   0xfdb, 0x002     	MOVFF	PLUSW2, r0x02
0039e2   f002
0039e4   0e05     movlw   0x05             	MOVLW	0x05
0039e6   cfdb     movff   0xfdb, 0x003     	MOVFF	PLUSW2, r0x03
0039e8   f003
                                           ;	.line	230; F:/OneDrive/API_PINGUINO_18F4550/API/pinguino/libraries/usb.c	usbsend(txpointer, length);
0039ea   5003     movf    0x03, 0x0, 0x0   	MOVF	r0x03, W
0039ec   6ee5     movwf   0xe5, 0x0        	MOVWF	POSTDEC1
0039ee   5002     movf    0x02, 0x0, 0x0   	MOVF	r0x02, W
0039f0   6ee5     movwf   0xe5, 0x0        	MOVWF	POSTDEC1
0039f2   5001     movf    0x01, 0x0, 0x0   	MOVF	r0x01, W
0039f4   6ee5     movwf   0xe5, 0x0        	MOVWF	POSTDEC1
0039f6   5000     movf    0x00, 0x0, 0x0   	MOVF	r0x00, W
0039f8   6ee5     movwf   0xe5, 0x0        	MOVWF	POSTDEC1
0039fa   ec84     call    0x003b08, 0x0call    0x003b08, 0x0 	CALL	_usbsend
0039fc   f01d
0039fe   0e04     movlw   0x04             	MOVLW	0x04
003a00   26e1     addwf   0xe1, 0x1, 0x0   	ADDWF	FSR1L, F
003a02   cfe4     movff   0xfe4, 0x003     	MOVFF	PREINC1, r0x03
003a04   f003
003a06   cfe4     movff   0xfe4, 0x002     	MOVFF	PREINC1, r0x02
003a08   f002
003a0a   cfe4     movff   0xfe4, 0x001     	MOVFF	PREINC1, r0x01
003a0c   f001
003a0e   cfe4     movff   0xfe4, 0x000     	MOVFF	PREINC1, r0x00
003a10   f000
003a12   cfe4     movff   0xfe4, 0xfd9     	MOVFF	PREINC1, FSR2L
003a14   ffd9
003a16   0012     return  0x0              	RETURN	
                                           
                                           ; ; Starting pCode block
                                           S_main__usb_interrupt	code
                                           _usb_interrupt:
                                           ;	.line	217; F:/OneDrive/API_PINGUINO_18F4550/API/pinguino/libraries/usb.c	if(PIR2bits.USBIF)
003cd2   aaa1     btfss   0xa1, 0x5, 0x0   	BTFSS	_PIR2bits, 5
003cd4   d006     bra     0x003ce2         	BRA	_00271_DS_
                                           ;	.line	220; F:/OneDrive/API_PINGUINO_18F4550/API/pinguino/libraries/usb.c	dispatch_usb_event();
003cd6   ec0f     call    0x00001e, 0x0call    0x00001e, 0x0 	CALL	_dispatch_usb_event
003cd8   f000
                                           ;	.line	221; F:/OneDrive/API_PINGUINO_18F4550/API/pinguino/libraries/usb.c	UIRbits.SOFIF = 0;
003cda   9c68     bcf     0x68, 0x6, 0x0   	BCF	_UIRbits, 6
                                           ;	.line	222; F:/OneDrive/API_PINGUINO_18F4550/API/pinguino/libraries/usb.c	UIRbits.URSTIF = 0;
003cdc   9068     bcf     0x68, 0x0, 0x0   	BCF	_UIRbits, 0
                                           ;	.line	223; F:/OneDrive/API_PINGUINO_18F4550/API/pinguino/libraries/usb.c	PIR2bits.USBIF = 0;
003cde   9aa1     bcf     0xa1, 0x5, 0x0   	BCF	_PIR2bits, 5
                                           ;	.line	224; F:/OneDrive/API_PINGUINO_18F4550/API/pinguino/libraries/usb.c	UEIR = 0;
003ce0   6a6a     clrf    0x6a, 0x0        	CLRF	_UEIR
                                           _00271_DS_:
003ce2   0012     return  0x0              	RETURN	
                                           
                                           ; ; Starting pCode block
                                           S_main__epapout_init	code
                                           _epapout_init:
                                           ;	.line	204; F:/OneDrive/API_PINGUINO_18F4550/API/pinguino/libraries/usb.c	EP_OUT_BD(1).Cnt = EP1_BUFFER_SIZE;
003c5a   0e40     movlw   0x40             	MOVLW	0x40
003c5c   0104     movlb   0x4              	BANKSEL	(_ep_bdt + 9)
003c5e   6f09     movwf   0x09, 0x1        	MOVWF	(_ep_bdt + 9), B
                                           ;	.line	205; F:/OneDrive/API_PINGUINO_18F4550/API/pinguino/libraries/usb.c	EP_OUT_BD(1).ADR = (u8 __data *)&RXbuffer;
003c60   0e40     movlw   0x40             	MOVLW	LOW(_RXbuffer)
                                           ; removed redundant BANKSEL
003c62   6f0a     movwf   0x0a, 0x1        	MOVWF	(_ep_bdt + 10), B
003c64   0e06     movlw   0x06             	MOVLW	HIGH(_RXbuffer)
                                           ; removed redundant BANKSEL
003c66   6f0b     movwf   0x0b, 0x1        	MOVWF	(_ep_bdt + 11), B
                                           ;	.line	206; F:/OneDrive/API_PINGUINO_18F4550/API/pinguino/libraries/usb.c	EP_OUT_BD(1).Stat.uc = BDS_USIE | BDS_DAT0 | BDS_DTSEN;
003c68   0e88     movlw   0x88             	MOVLW	0x88
                                           ; removed redundant BANKSEL
003c6a   6f08     movwf   0x08, 0x1        	MOVWF	(_ep_bdt + 8), B
                                           ;	.line	207; F:/OneDrive/API_PINGUINO_18F4550/API/pinguino/libraries/usb.c	UEP1 = EPHSHK_EN | EPOUTEN_EN | EPCONDIS_EN;       	// Init EPAPPLI as an OUT EP
003c6c   0e1c     movlw   0x1c             	MOVLW	0x1c
003c6e   6e71     movwf   0x71, 0x0        	MOVWF	_UEP1
                                           ; #	MOVLW	0x01
                                           ; #	MOVWF	_usbwp, B
                                           ; #	MOVLW	0x01
                                           ;	.line	208; F:/OneDrive/API_PINGUINO_18F4550/API/pinguino/libraries/usb.c	usbwp=1;						// init pointer for rx buffer pinguino
003c70   0e01     movlw   0x01             	MOVLW	0x01
003c72   0102     movlb   0x2              	BANKSEL	_usbwp
                                           ;	.line	209; F:/OneDrive/API_PINGUINO_18F4550/API/pinguino/libraries/usb.c	usbrp=1;
003c74   6f9d     movwf   0x9d, 0x1        	MOVWF	_usbwp, B
003c76   0102     movlb   0x2              	BANKSEL	_usbrp
003c78   6f9e     movwf   0x9e, 0x1        	MOVWF	_usbrp, B
003c7a   0012     return  0x0              	RETURN	
                                           
                                           ; ; Starting pCode block
                                           S_main__epap_out	code
                                           _epap_out:
                                           ;	.line	168; F:/OneDrive/API_PINGUINO_18F4550/API/pinguino/libraries/usb.c	void epap_out(void)
00318c   c000     movff   0x000, 0xfe5     	MOVFF	r0x00, POSTDEC1
00318e   ffe5
003190   c001     movff   0x001, 0xfe5     	MOVFF	r0x01, POSTDEC1
003192   ffe5
003194   c002     movff   0x002, 0xfe5     	MOVFF	r0x02, POSTDEC1
003196   ffe5
003198   c003     movff   0x003, 0xfe5     	MOVFF	r0x03, POSTDEC1
00319a   ffe5
                                           ;	.line	174; F:/OneDrive/API_PINGUINO_18F4550/API/pinguino/libraries/usb.c	if((EP_OUT_BD(1).Cnt >= 1) && ( EP_OUT_BD(1).Cnt<EP1_BUFFER_SIZE))
00319c   0e01     movlw   0x01             	MOVLW	0x01
00319e   0104     movlb   0x4              	BANKSEL	(_ep_bdt + 9)
0031a0   5d09     subwf   0x09, 0x0, 0x1   	SUBWF	(_ep_bdt + 9), W, B
0031a2   a0d8     btfss   0xd8, 0x0, 0x0   	BTFSS	STATUS, 0
0031a4   d047     bra     0x003234         	BRA	_00218_DS_
0031a6   0e40     movlw   0x40             	MOVLW	0x40
                                           ; removed redundant BANKSEL
0031a8   5d09     subwf   0x09, 0x0, 0x1   	SUBWF	(_ep_bdt + 9), W, B
0031aa   b0d8     btfsc   0xd8, 0x0, 0x0   	BTFSC	STATUS, 0
0031ac   d043     bra     0x003234         	BRA	_00218_DS_
                                           ;	.line	176; F:/OneDrive/API_PINGUINO_18F4550/API/pinguino/libraries/usb.c	for (cpt=0;cpt<EP_OUT_BD(1).Cnt;cpt++)
0031ae   6a00     clrf    0x00, 0x0        	CLRF	r0x00
                                           _00222_DS_:
0031b0   0104     movlb   0x4              	BANKSEL	(_ep_bdt + 9)
0031b2   5109     movf    0x09, 0x0, 0x1   	MOVF	(_ep_bdt + 9), W, B
0031b4   5c00     subwf   0x00, 0x0, 0x0   	SUBWF	r0x00, W
0031b6   e232     bc      0x00321c         	BC	_00213_DS_
                                           ;	.line	178; F:/OneDrive/API_PINGUINO_18F4550/API/pinguino/libraries/usb.c	caractere=RXbuffer[cpt];
0031b8   0e40     movlw   0x40             	MOVLW	LOW(_RXbuffer)
0031ba   2400     addwf   0x00, 0x0, 0x0   	ADDWF	r0x00, W
0031bc   6e01     movwf   0x01, 0x0        	MOVWF	r0x01
0031be   6a02     clrf    0x02, 0x0        	CLRF	r0x02
0031c0   0e06     movlw   0x06             	MOVLW	HIGH(_RXbuffer)
0031c2   2202     addwfc  0x02, 0x1, 0x0   	ADDWFC	r0x02, F
0031c4   c001     movff   0x001, 0xfe9     	MOVFF	r0x01, FSR0L
0031c6   ffe9
0031c8   c002     movff   0x002, 0xfea     	MOVFF	r0x02, FSR0H
0031ca   ffea
0031cc   cfef     movff   0xfef, 0x001     	MOVFF	INDF0, r0x01
0031ce   f001
0031d0   0102     movlb   0x2              	BANKSEL	_usbwp
                                           ;	.line	179; F:/OneDrive/API_PINGUINO_18F4550/API/pinguino/libraries/usb.c	if (usbwp!=USBRXSIZE-1) newusbwp=usbwp+1;               
0031d2   519d     movf    0x9d, 0x0, 0x1   	MOVF	_usbwp, W, B
0031d4   0a3f     xorlw   0x3f             	XORLW	0x3f
0031d6   e004     bz      0x0031e0         	BZ	_00207_DS_
                                           _00255_DS_:
0031d8   0102     movlb   0x2              	BANKSEL	_usbwp
0031da   299d     incf    0x9d, 0x0, 0x1   	INCF	_usbwp, W, B
0031dc   6e02     movwf   0x02, 0x0        	MOVWF	r0x02
0031de   d002     bra     0x0031e4         	BRA	_00208_DS_
                                           _00207_DS_:
                                           ;	.line	180; F:/OneDrive/API_PINGUINO_18F4550/API/pinguino/libraries/usb.c	else newusbwp=1;
0031e0   0e01     movlw   0x01             	MOVLW	0x01
0031e2   6e02     movwf   0x02, 0x0        	MOVWF	r0x02
                                           _00208_DS_:
0031e4   0102     movlb   0x2              	BANKSEL	_usbrp
                                           ;	.line	181; F:/OneDrive/API_PINGUINO_18F4550/API/pinguino/libraries/usb.c	if (usbrp!=newusbwp) usbrx[usbwp++]=caractere;
0031e6   519e     movf    0x9e, 0x0, 0x1   	MOVF	_usbrp, W, B
0031e8   1802     xorwf   0x02, 0x0, 0x0   	XORWF	r0x02, W
0031ea   e00f     bz      0x00320a         	BZ	_00210_DS_
0031ec   c29d     movff   0x29d, 0x002     	MOVFF	_usbwp, r0x02
0031ee   f002
0031f0   0102     movlb   0x2              	BANKSEL	_usbwp
0031f2   2b9d     incf    0x9d, 0x1, 0x1   	INCF	_usbwp, F, B
0031f4   6a03     clrf    0x03, 0x0        	CLRF	r0x03
0031f6   0e00     movlw   0x00             	MOVLW	LOW(_usbrx)
0031f8   2602     addwf   0x02, 0x1, 0x0   	ADDWF	r0x02, F
0031fa   0e02     movlw   0x02             	MOVLW	HIGH(_usbrx)
0031fc   2203     addwfc  0x03, 0x1, 0x0   	ADDWFC	r0x03, F
0031fe   c002     movff   0x002, 0xfe9     	MOVFF	r0x02, FSR0L
003200   ffe9
003202   c003     movff   0x003, 0xfea     	MOVFF	r0x03, FSR0H
003204   ffea
003206   c001     movff   0x001, 0xfef     	MOVFF	r0x01, INDF0
003208   ffef
                                           _00210_DS_:
00320a   0102     movlb   0x2              	BANKSEL	_usbwp
                                           ;	.line	182; F:/OneDrive/API_PINGUINO_18F4550/API/pinguino/libraries/usb.c	if (usbwp==USBRXSIZE) usbwp=1;
00320c   519d     movf    0x9d, 0x0, 0x1   	MOVF	_usbwp, W, B
00320e   0a40     xorlw   0x40             	XORLW	0x40
003210   e103     bnz     0x003218         	BNZ	_00223_DS_
003212   0e01     movlw   0x01             	MOVLW	0x01
003214   0102     movlb   0x2              	BANKSEL	_usbwp
003216   6f9d     movwf   0x9d, 0x1        	MOVWF	_usbwp, B
                                           _00223_DS_:
                                           ;	.line	176; F:/OneDrive/API_PINGUINO_18F4550/API/pinguino/libraries/usb.c	for (cpt=0;cpt<EP_OUT_BD(1).Cnt;cpt++)
003218   2a00     incf    0x00, 0x1, 0x0   	INCF	r0x00, F
00321a   d7ca     bra     0x0031b0         	BRA	_00222_DS_
                                           _00213_DS_:
                                           ;	.line	184; F:/OneDrive/API_PINGUINO_18F4550/API/pinguino/libraries/usb.c	EP_OUT_BD(1).Cnt = EP1_BUFFER_SIZE;
00321c   0e40     movlw   0x40             	MOVLW	0x40
00321e   0104     movlb   0x4              	BANKSEL	(_ep_bdt + 9)
003220   6f09     movwf   0x09, 0x1        	MOVWF	(_ep_bdt + 9), B
                                           ; removed redundant BANKSEL
                                           ;	.line	185; F:/OneDrive/API_PINGUINO_18F4550/API/pinguino/libraries/usb.c	if(EP_OUT_BD(1).Stat.DTS == 0)
003222   bd08     btfsc   0x08, 0x6, 0x1   	BTFSC	(_ep_bdt + 8), 6, B
003224   d003     bra     0x00322c         	BRA	_00215_DS_
                                           ;	.line	187; F:/OneDrive/API_PINGUINO_18F4550/API/pinguino/libraries/usb.c	EP_OUT_BD(1).Stat.uc = BDS_USIE | BDS_DAT1 | BDS_DTSEN;
003226   0ec8     movlw   0xc8             	MOVLW	0xc8
                                           ; removed redundant BANKSEL
003228   6f08     movwf   0x08, 0x1        	MOVWF	(_ep_bdt + 8), B
00322a   d00d     bra     0x003246         	BRA	_00224_DS_
                                           _00215_DS_:
                                           ;	.line	191; F:/OneDrive/API_PINGUINO_18F4550/API/pinguino/libraries/usb.c	EP_OUT_BD(1).Stat.uc = BDS_USIE | BDS_DAT0 | BDS_DTSEN;
00322c   0e88     movlw   0x88             	MOVLW	0x88
00322e   0104     movlb   0x4              	BANKSEL	(_ep_bdt + 8)
003230   6f08     movwf   0x08, 0x1        	MOVWF	(_ep_bdt + 8), B
003232   d009     bra     0x003246         	BRA	_00224_DS_
                                           _00218_DS_:
                                           ;	.line	196; F:/OneDrive/API_PINGUINO_18F4550/API/pinguino/libraries/usb.c	EP_OUT_BD(1).Cnt = EP1_BUFFER_SIZE;
003234   0e40     movlw   0x40             	MOVLW	0x40
003236   0104     movlb   0x4              	BANKSEL	(_ep_bdt + 9)
003238   6f09     movwf   0x09, 0x1        	MOVWF	(_ep_bdt + 9), B
                                           ;	.line	197; F:/OneDrive/API_PINGUINO_18F4550/API/pinguino/libraries/usb.c	EP_OUT_BD(1).ADR = (u8 __data *)&RXbuffer;
00323a   0e40     movlw   0x40             	MOVLW	LOW(_RXbuffer)
                                           ; removed redundant BANKSEL
00323c   6f0a     movwf   0x0a, 0x1        	MOVWF	(_ep_bdt + 10), B
00323e   0e06     movlw   0x06             	MOVLW	HIGH(_RXbuffer)
                                           ; removed redundant BANKSEL
003240   6f0b     movwf   0x0b, 0x1        	MOVWF	(_ep_bdt + 11), B
                                           ;	.line	198; F:/OneDrive/API_PINGUINO_18F4550/API/pinguino/libraries/usb.c	EP_OUT_BD(1).Stat.uc = BDS_USIE | BDS_BSTALL;
003242   0e84     movlw   0x84             	MOVLW	0x84
                                           ; removed redundant BANKSEL
003244   6f08     movwf   0x08, 0x1        	MOVWF	(_ep_bdt + 8), B
                                           _00224_DS_:
003246   cfe4     movff   0xfe4, 0x003     	MOVFF	PREINC1, r0x03
003248   f003
00324a   cfe4     movff   0xfe4, 0x002     	MOVFF	PREINC1, r0x02
00324c   f002
00324e   cfe4     movff   0xfe4, 0x001     	MOVFF	PREINC1, r0x01
003250   f001
003252   cfe4     movff   0xfe4, 0x000     	MOVFF	PREINC1, r0x00
003254   f000
003256   0012     return  0x0              	RETURN	
                                           
                                           ; ; Starting pCode block
                                           S_main__usbreceive	code
                                           _usbreceive:
                                           ;	.line	156; F:/OneDrive/API_PINGUINO_18F4550/API/pinguino/libraries/usb.c	u8 usbreceive(u8 *rxpointer)
003258   cfd9     movff   0xfd9, 0xfe5     	MOVFF	FSR2L, POSTDEC1
00325a   ffe5
00325c   cfe1     movff   0xfe1, 0xfd9     	MOVFF	FSR1L, FSR2L
00325e   ffd9
003260   c000     movff   0x000, 0xfe5     	MOVFF	r0x00, POSTDEC1
003262   ffe5
003264   c001     movff   0x001, 0xfe5     	MOVFF	r0x01, POSTDEC1
003266   ffe5
003268   c002     movff   0x002, 0xfe5     	MOVFF	r0x02, POSTDEC1
00326a   ffe5
00326c   c003     movff   0x003, 0xfe5     	MOVFF	r0x03, POSTDEC1
00326e   ffe5
003270   c004     movff   0x004, 0xfe5     	MOVFF	r0x04, POSTDEC1
003272   ffe5
003274   c005     movff   0x005, 0xfe5     	MOVFF	r0x05, POSTDEC1
003276   ffe5
003278   c006     movff   0x006, 0xfe5     	MOVFF	r0x06, POSTDEC1
00327a   ffe5
00327c   c007     movff   0x007, 0xfe5     	MOVFF	r0x07, POSTDEC1
00327e   ffe5
003280   c008     movff   0x008, 0xfe5     	MOVFF	r0x08, POSTDEC1
003282   ffe5
003284   0e02     movlw   0x02             	MOVLW	0x02
003286   cfdb     movff   0xfdb, 0x000     	MOVFF	PLUSW2, r0x00
003288   f000
00328a   0e03     movlw   0x03             	MOVLW	0x03
00328c   cfdb     movff   0xfdb, 0x001     	MOVFF	PLUSW2, r0x01
00328e   f001
003290   0e04     movlw   0x04             	MOVLW	0x04
003292   cfdb     movff   0xfdb, 0x002     	MOVFF	PLUSW2, r0x02
003294   f002
                                           ;	.line	159; F:/OneDrive/API_PINGUINO_18F4550/API/pinguino/libraries/usb.c	while (usbavailable())
003296   6a03     clrf    0x03, 0x0        	CLRF	r0x03
                                           _00185_DS_:
003298   ecf7     call    0x003bee, 0x0call    0x003bee, 0x0 	CALL	_usbavailable
00329a   f01d
00329c   6e04     movwf   0x04, 0x0        	MOVWF	r0x04
00329e   5004     movf    0x04, 0x0, 0x0   	MOVF	r0x04, W
0032a0   e02b     bz      0x0032f8         	BZ	_00187_DS_
                                           ;	.line	161; F:/OneDrive/API_PINGUINO_18F4550/API/pinguino/libraries/usb.c	rxpointer[rp++]= usbrx[usbrp++];
0032a2   c003     movff   0x003, 0x004     	MOVFF	r0x03, r0x04
0032a4   f004
0032a6   2a03     incf    0x03, 0x1, 0x0   	INCF	r0x03, F
0032a8   6a05     clrf    0x05, 0x0        	CLRF	r0x05
0032aa   6a06     clrf    0x06, 0x0        	CLRF	r0x06
0032ac   5000     movf    0x00, 0x0, 0x0   	MOVF	r0x00, W
0032ae   2604     addwf   0x04, 0x1, 0x0   	ADDWF	r0x04, F
0032b0   5001     movf    0x01, 0x0, 0x0   	MOVF	r0x01, W
0032b2   2205     addwfc  0x05, 0x1, 0x0   	ADDWFC	r0x05, F
0032b4   5002     movf    0x02, 0x0, 0x0   	MOVF	r0x02, W
0032b6   2206     addwfc  0x06, 0x1, 0x0   	ADDWFC	r0x06, F
0032b8   c29e     movff   0x29e, 0x007     	MOVFF	_usbrp, r0x07
0032ba   f007
0032bc   0102     movlb   0x2              	BANKSEL	_usbrp
0032be   2b9e     incf    0x9e, 0x1, 0x1   	INCF	_usbrp, F, B
0032c0   6a08     clrf    0x08, 0x0        	CLRF	r0x08
0032c2   0e00     movlw   0x00             	MOVLW	LOW(_usbrx)
0032c4   2607     addwf   0x07, 0x1, 0x0   	ADDWF	r0x07, F
0032c6   0e02     movlw   0x02             	MOVLW	HIGH(_usbrx)
0032c8   2208     addwfc  0x08, 0x1, 0x0   	ADDWFC	r0x08, F
0032ca   c007     movff   0x007, 0xfe9     	MOVFF	r0x07, FSR0L
0032cc   ffe9
0032ce   c008     movff   0x008, 0xfea     	MOVFF	r0x08, FSR0H
0032d0   ffea
0032d2   cfef     movff   0xfef, 0x007     	MOVFF	INDF0, r0x07
0032d4   f007
0032d6   c007     movff   0x007, 0xfe5     	MOVFF	r0x07, POSTDEC1
0032d8   ffe5
0032da   c004     movff   0x004, 0xfe9     	MOVFF	r0x04, FSR0L
0032dc   ffe9
0032de   c005     movff   0x005, 0xff3     	MOVFF	r0x05, PRODL
0032e0   fff3
0032e2   5006     movf    0x06, 0x0, 0x0   	MOVF	r0x06, W
0032e4   ec31     call    0x000062, 0x0call    0x000062, 0x0 	CALL	__gptrput1
0032e6   f000
0032e8   0102     movlb   0x2              	BANKSEL	_usbrp
                                           ;	.line	162; F:/OneDrive/API_PINGUINO_18F4550/API/pinguino/libraries/usb.c	if (usbrp==USBRXSIZE)
0032ea   519e     movf    0x9e, 0x0, 0x1   	MOVF	_usbrp, W, B
0032ec   0a40     xorlw   0x40             	XORLW	0x40
0032ee   e1d4     bnz     0x003298         	BNZ	_00185_DS_
                                           ;	.line	163; F:/OneDrive/API_PINGUINO_18F4550/API/pinguino/libraries/usb.c	usbrp=1;
0032f0   0e01     movlw   0x01             	MOVLW	0x01
0032f2   0102     movlb   0x2              	BANKSEL	_usbrp
0032f4   6f9e     movwf   0x9e, 0x1        	MOVWF	_usbrp, B
0032f6   d7d0     bra     0x003298         	BRA	_00185_DS_
                                           _00187_DS_:
                                           ;	.line	165; F:/OneDrive/API_PINGUINO_18F4550/API/pinguino/libraries/usb.c	return(rp);
0032f8   5003     movf    0x03, 0x0, 0x0   	MOVF	r0x03, W
0032fa   cfe4     movff   0xfe4, 0x008     	MOVFF	PREINC1, r0x08
0032fc   f008
0032fe   cfe4     movff   0xfe4, 0x007     	MOVFF	PREINC1, r0x07
003300   f007
003302   cfe4     movff   0xfe4, 0x006     	MOVFF	PREINC1, r0x06
003304   f006
003306   cfe4     movff   0xfe4, 0x005     	MOVFF	PREINC1, r0x05
003308   f005
00330a   cfe4     movff   0xfe4, 0x004     	MOVFF	PREINC1, r0x04
00330c   f004
00330e   cfe4     movff   0xfe4, 0x003     	MOVFF	PREINC1, r0x03
003310   f003
003312   cfe4     movff   0xfe4, 0x002     	MOVFF	PREINC1, r0x02
003314   f002
003316   cfe4     movff   0xfe4, 0x001     	MOVFF	PREINC1, r0x01
003318   f001
00331a   cfe4     movff   0xfe4, 0x000     	MOVFF	PREINC1, r0x00
00331c   f000
00331e   cfe4     movff   0xfe4, 0xfd9     	MOVFF	PREINC1, FSR2L
003320   ffd9
003322   0012     return  0x0              	RETURN	
                                           
                                           ; ; Starting pCode block
                                           S_main__usbread	code
                                           _usbread:
                                           ;	.line	143; F:/OneDrive/API_PINGUINO_18F4550/API/pinguino/libraries/usb.c	u8 usbread()
003ab8   c000     movff   0x000, 0xfe5     	MOVFF	r0x00, POSTDEC1
003aba   ffe5
003abc   c001     movff   0x001, 0xfe5     	MOVFF	r0x01, POSTDEC1
003abe   ffe5
003ac0   c002     movff   0x002, 0xfe5     	MOVFF	r0x02, POSTDEC1
003ac2   ffe5
                                           ;	.line	145; F:/OneDrive/API_PINGUINO_18F4550/API/pinguino/libraries/usb.c	u8 caractere=0;
003ac4   6a00     clrf    0x00, 0x0        	CLRF	r0x00
                                           ;	.line	147; F:/OneDrive/API_PINGUINO_18F4550/API/pinguino/libraries/usb.c	if (usbavailable)
003ac6   50ee     movf    0xee, 0x0, 0x0   	MOVF	LOW(_usbavailable), W
003ac8   103b     iorwf   0x3b, 0x0, 0x0   	IORWF	HIGH(_usbavailable), W
003aca   1000     iorwf   0x00, 0x0, 0x0   	IORWF	UPPER(_usbavailable), W
003acc   e015     bz      0x003af8         	BZ	_00168_DS_
                                           ;	.line	149; F:/OneDrive/API_PINGUINO_18F4550/API/pinguino/libraries/usb.c	caractere=usbrx[usbrp++];
003ace   c29e     movff   0x29e, 0x001     	MOVFF	_usbrp, r0x01
003ad0   f001
003ad2   0102     movlb   0x2              	BANKSEL	_usbrp
003ad4   2b9e     incf    0x9e, 0x1, 0x1   	INCF	_usbrp, F, B
003ad6   6a02     clrf    0x02, 0x0        	CLRF	r0x02
003ad8   0e00     movlw   0x00             	MOVLW	LOW(_usbrx)
003ada   2601     addwf   0x01, 0x1, 0x0   	ADDWF	r0x01, F
003adc   0e02     movlw   0x02             	MOVLW	HIGH(_usbrx)
003ade   2202     addwfc  0x02, 0x1, 0x0   	ADDWFC	r0x02, F
003ae0   c001     movff   0x001, 0xfe9     	MOVFF	r0x01, FSR0L
003ae2   ffe9
003ae4   c002     movff   0x002, 0xfea     	MOVFF	r0x02, FSR0H
003ae6   ffea
003ae8   cfef     movff   0xfef, 0x000     	MOVFF	INDF0, r0x00
003aea   f000
                                           ; removed redundant BANKSEL
                                           ;	.line	150; F:/OneDrive/API_PINGUINO_18F4550/API/pinguino/libraries/usb.c	if (usbrp==USBRXSIZE)
003aec   519e     movf    0x9e, 0x0, 0x1   	MOVF	_usbrp, W, B
003aee   0a40     xorlw   0x40             	XORLW	0x40
003af0   e103     bnz     0x003af8         	BNZ	_00168_DS_
                                           ;	.line	151; F:/OneDrive/API_PINGUINO_18F4550/API/pinguino/libraries/usb.c	usbrp=1;
003af2   0e01     movlw   0x01             	MOVLW	0x01
003af4   0102     movlb   0x2              	BANKSEL	_usbrp
003af6   6f9e     movwf   0x9e, 0x1        	MOVWF	_usbrp, B
                                           _00168_DS_:
                                           ;	.line	153; F:/OneDrive/API_PINGUINO_18F4550/API/pinguino/libraries/usb.c	return(caractere);
003af8   5000     movf    0x00, 0x0, 0x0   	MOVF	r0x00, W
003afa   cfe4     movff   0xfe4, 0x002     	MOVFF	PREINC1, r0x02
003afc   f002
003afe   cfe4     movff   0xfe4, 0x001     	MOVFF	PREINC1, r0x01
003b00   f001
003b02   cfe4     movff   0xfe4, 0x000     	MOVFF	PREINC1, r0x00
003b04   f000
003b06   0012     return  0x0              	RETURN	
                                           
                                           ; ; Starting pCode block
                                           S_main__epap_in	code
                                           _epap_in:
00382e   0102     movlb   0x2              	BANKSEL	_ep2_num_bytes_to_send
                                           ;	.line	121; F:/OneDrive/API_PINGUINO_18F4550/API/pinguino/libraries/usb.c	if((ep2_num_bytes_to_send == 0) && last_send_was_null)
003830   5197     movf    0x97, 0x0, 0x1   	MOVF	_ep2_num_bytes_to_send, W, B
                                           ; removed redundant BANKSEL
003832   1198     iorwf   0x98, 0x0, 0x1   	IORWF	(_ep2_num_bytes_to_send + 1), W, B
003834   e103     bnz     0x00383c         	BNZ	_00143_DS_
                                           ; #	MOVF	_last_send_was_null, W, B
                                           ; #	BTFSC	STATUS, 2
                                           ; #	GOTO	_00143_DS_
                                           ; #	GOTO	_00148_DS_
                                           ; #	MOVLW	0x00
003836   0102     movlb   0x2              	BANKSEL	_last_send_was_null
                                           ;	.line	123; F:/OneDrive/API_PINGUINO_18F4550/API/pinguino/libraries/usb.c	return;
003838   5199     movf    0x99, 0x0, 0x1   	MOVF	_last_send_was_null, W, B
                                           ;	.line	125; F:/OneDrive/API_PINGUINO_18F4550/API/pinguino/libraries/usb.c	last_send_was_null = (ep2_num_bytes_to_send < EP2_BUFFER_SIZE);
00383a   e12c     bnz     0x003894         	BNZ	_00148_DS_
                                           _00143_DS_:
00383c   0e00     movlw   0x00             	MOVLW	0x00
00383e   0102     movlb   0x2              	BANKSEL	(_ep2_num_bytes_to_send + 1)
003840   5d98     subwf   0x98, 0x0, 0x1   	SUBWF	(_ep2_num_bytes_to_send + 1), W, B
003842   e102     bnz     0x003848         	BNZ	_00160_DS_
003844   0e40     movlw   0x40             	MOVLW	0x40
                                           ; removed redundant BANKSEL
003846   5d97     subwf   0x97, 0x0, 0x1   	SUBWF	_ep2_num_bytes_to_send, W, B
                                           _00160_DS_:
003848   70d8     btg     0xd8, 0x0, 0x0   	BTG	STATUS, 0
00384a   0102     movlb   0x2              	BANKSEL	_last_send_was_null
00384c   6b99     clrf    0x99, 0x1        	CLRF	_last_send_was_null, B
00384e   3799     rlcf    0x99, 0x1, 0x1   	RLCF	_last_send_was_null, F, B
                                           ; #	MOVF	_ep2_num_bytes_to_send, W, B
                                           ; #	MOVWF	r0x00
                                           ; #	MOVF	r0x00, W
003850   0102     movlb   0x2              	BANKSEL	_ep2_num_bytes_to_send
                                           ;	.line	126; F:/OneDrive/API_PINGUINO_18F4550/API/pinguino/libraries/usb.c	EP_IN_BD(2).Cnt = ep2_num_bytes_to_send;
003852   5197     movf    0x97, 0x0, 0x1   	MOVF	_ep2_num_bytes_to_send, W, B
003854   0104     movlb   0x4              	BANKSEL	(_ep_bdt + 21)
003856   6f15     movwf   0x15, 0x1        	MOVWF	(_ep_bdt + 21), B
                                           ;	.line	129; F:/OneDrive/API_PINGUINO_18F4550/API/pinguino/libraries/usb.c	fill_in_buffer(2, &ep2_source_data, EP2_BUFFER_SIZE, &ep2_num_bytes_to_send);
003858   0e80     movlw   0x80             	MOVLW	0x80
                                           ; #	MOVWF	r0x05
                                           ; #	MOVF	r0x05, W
00385a   6ee5     movwf   0xe5, 0x0        	MOVWF	POSTDEC1
00385c   0e02     movlw   0x02             	MOVLW	HIGH(_ep2_num_bytes_to_send)
00385e   6ee5     movwf   0xe5, 0x0        	MOVWF	POSTDEC1
003860   0e97     movlw   0x97             	MOVLW	LOW(_ep2_num_bytes_to_send)
003862   6ee5     movwf   0xe5, 0x0        	MOVWF	POSTDEC1
003864   6ae5     clrf    0xe5, 0x0        	CLRF	POSTDEC1
003866   0e40     movlw   0x40             	MOVLW	0x40
003868   6ee5     movwf   0xe5, 0x0        	MOVWF	POSTDEC1
00386a   0e80     movlw   0x80             	MOVLW	0x80
00386c   6ee5     movwf   0xe5, 0x0        	MOVWF	POSTDEC1
00386e   0e02     movlw   0x02             	MOVLW	HIGH(_ep2_source_data)
003870   6ee5     movwf   0xe5, 0x0        	MOVWF	POSTDEC1
003872   0e94     movlw   0x94             	MOVLW	LOW(_ep2_source_data)
003874   6ee5     movwf   0xe5, 0x0        	MOVWF	POSTDEC1
003876   0e02     movlw   0x02             	MOVLW	0x02
003878   6ee5     movwf   0xe5, 0x0        	MOVWF	POSTDEC1
00387a   ec15     call    0x00002a, 0x0call    0x00002a, 0x0 	CALL	_fill_in_buffer
00387c   f000
00387e   0e09     movlw   0x09             	MOVLW	0x09
003880   26e1     addwf   0xe1, 0x1, 0x0   	ADDWF	FSR1L, F
003882   0104     movlb   0x4              	BANKSEL	(_ep_bdt + 20)
                                           ;	.line	131; F:/OneDrive/API_PINGUINO_18F4550/API/pinguino/libraries/usb.c	if(EP_IN_BD(2).Stat.DTS == 0)
003884   bd14     btfsc   0x14, 0x6, 0x1   	BTFSC	(_ep_bdt + 20), 6, B
003886   d003     bra     0x00388e         	BRA	_00146_DS_
                                           ;	.line	133; F:/OneDrive/API_PINGUINO_18F4550/API/pinguino/libraries/usb.c	EP_IN_BD(2).Stat.uc = BDS_USIE | BDS_DAT1 | BDS_DTSEN;
003888   0ec8     movlw   0xc8             	MOVLW	0xc8
                                           ; removed redundant BANKSEL
00388a   6f14     movwf   0x14, 0x1        	MOVWF	(_ep_bdt + 20), B
00388c   d003     bra     0x003894         	BRA	_00148_DS_
                                           _00146_DS_:
                                           ;	.line	137; F:/OneDrive/API_PINGUINO_18F4550/API/pinguino/libraries/usb.c	EP_IN_BD(2).Stat.uc = BDS_USIE | BDS_DAT0 | BDS_DTSEN;
00388e   0e88     movlw   0x88             	MOVLW	0x88
003890   0104     movlb   0x4              	BANKSEL	(_ep_bdt + 20)
003892   6f14     movwf   0x14, 0x1        	MOVWF	(_ep_bdt + 20), B
                                           _00148_DS_:
003894   0012     return  0x0              	RETURN	
                                           
                                           ; ; Starting pCode block
                                           S_main__usbsend	code
                                           _usbsend:
                                           ;	.line	102; F:/OneDrive/API_PINGUINO_18F4550/API/pinguino/libraries/usb.c	void usbsend(u8 *txpointer, u8 length)
003b08   cfd9     movff   0xfd9, 0xfe5     	MOVFF	FSR2L, POSTDEC1
003b0a   ffe5
003b0c   cfe1     movff   0xfe1, 0xfd9     	MOVFF	FSR1L, FSR2L
003b0e   ffd9
003b10   c000     movff   0x000, 0xfe5     	MOVFF	r0x00, POSTDEC1
003b12   ffe5
003b14   0e02     movlw   0x02             	MOVLW	0x02
003b16   cfdb     movff   0xfdb, 0x294     	MOVFF	PLUSW2, _ep2_source_data
003b18   f294
003b1a   0e03     movlw   0x03             	MOVLW	0x03
003b1c   cfdb     movff   0xfdb, 0x295     	MOVFF	PLUSW2, (_ep2_source_data + 1)
003b1e   f295
003b20   0e04     movlw   0x04             	MOVLW	0x04
003b22   cfdb     movff   0xfdb, 0x296     	MOVFF	PLUSW2, (_ep2_source_data + 2)
003b24   f296
003b26   0e05     movlw   0x05             	MOVLW	0x05
003b28   cfdb     movff   0xfdb, 0x000     	MOVFF	PLUSW2, r0x00
003b2a   f000
                                           ;	.line	105; F:/OneDrive/API_PINGUINO_18F4550/API/pinguino/libraries/usb.c	ep2_num_bytes_to_send=length;
003b2c   c000     movff   0x000, 0x297     	MOVFF	r0x00, _ep2_num_bytes_to_send
003b2e   f297
003b30   0102     movlb   0x2              	BANKSEL	(_ep2_num_bytes_to_send + 1)
003b32   6b98     clrf    0x98, 0x1        	CLRF	(_ep2_num_bytes_to_send + 1), B
                                           ;	.line	106; F:/OneDrive/API_PINGUINO_18F4550/API/pinguino/libraries/usb.c	prepare_ep2_in();
003b34   ec7d     call    0x0038fa, 0x0call    0x0038fa, 0x0 	CALL	_prepare_ep2_in
003b36   f01c
003b38   cfe4     movff   0xfe4, 0x000     	MOVFF	PREINC1, r0x00
003b3a   f000
003b3c   cfe4     movff   0xfe4, 0xfd9     	MOVFF	PREINC1, FSR2L
003b3e   ffd9
003b40   0012     return  0x0              	RETURN	
                                           
                                           ; ; Starting pCode block
                                           S_main__prepare_ep2_in	code
                                           _prepare_ep2_in:
                                           ;	.line	88; F:/OneDrive/API_PINGUINO_18F4550/API/pinguino/libraries/usb.c	last_send_was_null = (ep2_num_bytes_to_send < EP2_BUFFER_SIZE);
0038fa   0e00     movlw   0x00             	MOVLW	0x00
0038fc   0102     movlb   0x2              	BANKSEL	(_ep2_num_bytes_to_send + 1)
0038fe   5d98     subwf   0x98, 0x0, 0x1   	SUBWF	(_ep2_num_bytes_to_send + 1), W, B
003900   e102     bnz     0x003906         	BNZ	_00132_DS_
003902   0e40     movlw   0x40             	MOVLW	0x40
                                           ; removed redundant BANKSEL
003904   5d97     subwf   0x97, 0x0, 0x1   	SUBWF	_ep2_num_bytes_to_send, W, B
                                           _00132_DS_:
003906   70d8     btg     0xd8, 0x0, 0x0   	BTG	STATUS, 0
003908   0102     movlb   0x2              	BANKSEL	_last_send_was_null
00390a   6b99     clrf    0x99, 0x1        	CLRF	_last_send_was_null, B
00390c   3799     rlcf    0x99, 0x1, 0x1   	RLCF	_last_send_was_null, F, B
                                           ; #	MOVF	_ep2_num_bytes_to_send, W, B
                                           ; #	MOVWF	r0x00
                                           ; #	MOVF	r0x00, W
00390e   0102     movlb   0x2              	BANKSEL	_ep2_num_bytes_to_send
                                           ;	.line	89; F:/OneDrive/API_PINGUINO_18F4550/API/pinguino/libraries/usb.c	EP_IN_BD(2).Cnt = ep2_num_bytes_to_send;
003910   5197     movf    0x97, 0x0, 0x1   	MOVF	_ep2_num_bytes_to_send, W, B
003912   0104     movlb   0x4              	BANKSEL	(_ep_bdt + 21)
003914   6f15     movwf   0x15, 0x1        	MOVWF	(_ep_bdt + 21), B
                                           ;	.line	90; F:/OneDrive/API_PINGUINO_18F4550/API/pinguino/libraries/usb.c	EP_IN_BD(2).ADR = (u8 __data *)&TXBuffer;
003916   0e00     movlw   0x00             	MOVLW	LOW(_TXBuffer)
                                           ; removed redundant BANKSEL
003918   6f16     movwf   0x16, 0x1        	MOVWF	(_ep_bdt + 22), B
00391a   0e06     movlw   0x06             	MOVLW	HIGH(_TXBuffer)
                                           ; removed redundant BANKSEL
00391c   6f17     movwf   0x17, 0x1        	MOVWF	(_ep_bdt + 23), B
                                           ;	.line	91; F:/OneDrive/API_PINGUINO_18F4550/API/pinguino/libraries/usb.c	fill_in_buffer(2, &ep2_source_data, EP2_BUFFER_SIZE, &ep2_num_bytes_to_send);
00391e   0e80     movlw   0x80             	MOVLW	0x80
                                           ; #	MOVWF	r0x05
                                           ; #	MOVF	r0x05, W
003920   6ee5     movwf   0xe5, 0x0        	MOVWF	POSTDEC1
003922   0e02     movlw   0x02             	MOVLW	HIGH(_ep2_num_bytes_to_send)
003924   6ee5     movwf   0xe5, 0x0        	MOVWF	POSTDEC1
003926   0e97     movlw   0x97             	MOVLW	LOW(_ep2_num_bytes_to_send)
003928   6ee5     movwf   0xe5, 0x0        	MOVWF	POSTDEC1
00392a   6ae5     clrf    0xe5, 0x0        	CLRF	POSTDEC1
00392c   0e40     movlw   0x40             	MOVLW	0x40
00392e   6ee5     movwf   0xe5, 0x0        	MOVWF	POSTDEC1
003930   0e80     movlw   0x80             	MOVLW	0x80
003932   6ee5     movwf   0xe5, 0x0        	MOVWF	POSTDEC1
003934   0e02     movlw   0x02             	MOVLW	HIGH(_ep2_source_data)
003936   6ee5     movwf   0xe5, 0x0        	MOVWF	POSTDEC1
003938   0e94     movlw   0x94             	MOVLW	LOW(_ep2_source_data)
00393a   6ee5     movwf   0xe5, 0x0        	MOVWF	POSTDEC1
00393c   0e02     movlw   0x02             	MOVLW	0x02
00393e   6ee5     movwf   0xe5, 0x0        	MOVWF	POSTDEC1
003940   ec15     call    0x00002a, 0x0call    0x00002a, 0x0 	CALL	_fill_in_buffer
003942   f000
003944   0e09     movlw   0x09             	MOVLW	0x09
003946   26e1     addwf   0xe1, 0x1, 0x0   	ADDWF	FSR1L, F
003948   0104     movlb   0x4              	BANKSEL	(_ep_bdt + 20)
                                           ;	.line	92; F:/OneDrive/API_PINGUINO_18F4550/API/pinguino/libraries/usb.c	if(EP_IN_BD(2).Stat.DTS == 0)
00394a   bd14     btfsc   0x14, 0x6, 0x1   	BTFSC	(_ep_bdt + 20), 6, B
00394c   d003     bra     0x003954         	BRA	_00124_DS_
                                           ;	.line	94; F:/OneDrive/API_PINGUINO_18F4550/API/pinguino/libraries/usb.c	EP_IN_BD(2).Stat.uc = BDS_USIE | BDS_DAT1 | BDS_DTSEN;
00394e   0ec8     movlw   0xc8             	MOVLW	0xc8
                                           ; removed redundant BANKSEL
003950   6f14     movwf   0x14, 0x1        	MOVWF	(_ep_bdt + 20), B
003952   d003     bra     0x00395a         	BRA	_00126_DS_
                                           _00124_DS_:
                                           ;	.line	98; F:/OneDrive/API_PINGUINO_18F4550/API/pinguino/libraries/usb.c	EP_IN_BD(2).Stat.uc = BDS_USIE | BDS_DAT0 | BDS_DTSEN;
003954   0e88     movlw   0x88             	MOVLW	0x88
003956   0104     movlb   0x4              	BANKSEL	(_ep_bdt + 20)
003958   6f14     movwf   0x14, 0x1        	MOVWF	(_ep_bdt + 20), B
                                           _00126_DS_:
00395a   0012     return  0x0              	RETURN	
                                           
                                           ; ; Starting pCode block
                                           S_main__epapin_init	code
                                           _epapin_init:
                                           ;	.line	82; F:/OneDrive/API_PINGUINO_18F4550/API/pinguino/libraries/usb.c	EP_IN_BD(2).Stat.uc = BDS_UCPU | BDS_DAT1 | BDS_DTSEN;
003cf2   0e48     movlw   0x48             	MOVLW	0x48
003cf4   0104     movlb   0x4              	BANKSEL	(_ep_bdt + 20)
003cf6   6f14     movwf   0x14, 0x1        	MOVWF	(_ep_bdt + 20), B
                                           ;	.line	83; F:/OneDrive/API_PINGUINO_18F4550/API/pinguino/libraries/usb.c	UEP2 = EPHSHK_EN | EPINEN_EN |  EPCONDIS_EN;
003cf8   0e1a     movlw   0x1a             	MOVLW	0x1a
003cfa   6e72     movwf   0x72, 0x0        	MOVWF	_UEP2
003cfc   0012     return  0x0              	RETURN	
                                           
                                           ; ; Starting pCode block
                                           S_main__usbavailable	code
                                           _usbavailable:
                                           ;	.line	73; F:/OneDrive/API_PINGUINO_18F4550/API/pinguino/libraries/usb.c	u8 usbavailable(void)
003bee   c000     movff   0x000, 0xfe5     	MOVFF	r0x00, POSTDEC1
003bf0   ffe5
                                           ;	.line	75; F:/OneDrive/API_PINGUINO_18F4550/API/pinguino/libraries/usb.c	return (usbwp!=usbrp);
003bf2   6a00     clrf    0x00, 0x0        	CLRF	r0x00
003bf4   0102     movlb   0x2              	BANKSEL	_usbwp
003bf6   519d     movf    0x9d, 0x0, 0x1   	MOVF	_usbwp, W, B
003bf8   0102     movlb   0x2              	BANKSEL	_usbrp
003bfa   199e     xorwf   0x9e, 0x0, 0x1   	XORWF	_usbrp, W, B
003bfc   e101     bnz     0x003c00         	BNZ	_00113_DS_
003bfe   2a00     incf    0x00, 0x1, 0x0   	INCF	r0x00, F
                                           _00113_DS_:
003c00   5000     movf    0x00, 0x0, 0x0   	MOVF	r0x00, W
003c02   80d8     bsf     0xd8, 0x0, 0x0   	BSF	STATUS, 0
003c04   66e8     tstfsz  0xe8, 0x0        	TSTFSZ	WREG
003c06   90d8     bcf     0xd8, 0x0, 0x0   	BCF	STATUS, 0
003c08   6a00     clrf    0x00, 0x0        	CLRF	r0x00
003c0a   3600     rlcf    0x00, 0x1, 0x0   	RLCF	r0x00, F
003c0c   5000     movf    0x00, 0x0, 0x0   	MOVF	r0x00, W
003c0e   cfe4     movff   0xfe4, 0x000     	MOVFF	PREINC1, r0x00
003c10   f000
003c12   0012     return  0x0              	RETURN	
                                           
                                           ; ; Starting pCode block
                                           S_main__usb_init	code
                                           _usb_init:
                                           ;	.line	65; F:/OneDrive/API_PINGUINO_18F4550/API/pinguino/libraries/usb.c	PIR2bits.USBIF = 0;     // clear usb interrupt flag
003cfe   9aa1     bcf     0xa1, 0x5, 0x0   	BCF	_PIR2bits, 5
                                           ;	.line	66; F:/OneDrive/API_PINGUINO_18F4550/API/pinguino/libraries/usb.c	PIE2bits.USBIE = 1;     // enable usb interrupt
003d00   8aa0     bsf     0xa0, 0x5, 0x0   	BSF	_PIE2bits, 5
                                           ;	.line	67; F:/OneDrive/API_PINGUINO_18F4550/API/pinguino/libraries/usb.c	IPR2bits.USBIP = 1;     // high priority interrupt
003d02   8aa2     bsf     0xa2, 0x5, 0x0   	BSF	_IPR2bits, 5
                                           ;	.line	69; F:/OneDrive/API_PINGUINO_18F4550/API/pinguino/libraries/usb.c	INTCONbits.GIEH = 1;   // Enable global HP interrupts
003d04   8ef2     bsf     0xf2, 0x7, 0x0   	BSF	_INTCONbits, 7
                                           ;	.line	70; F:/OneDrive/API_PINGUINO_18F4550/API/pinguino/libraries/usb.c	INTCONbits.GIEL = 1;   // Enable global LP interrupts
003d06   8cf2     bsf     0xf2, 0x6, 0x0   	BSF	_INTCONbits, 6
003d08   0012     return  0x0              	RETURN	
                                           
                                           ; ; Starting pCode block for Ival
                                           	code
                                           _mask:
0023b2   0201     mulwf   0x01, 0x0        	DB	0x01, 0x02, 0x04, 0x08, 0x10, 0x20, 0x40, 0x80, 0x40, 0x80, 0x01, 0x02
0023b4   0804     sublw   0x04             
0023b6   2010     addwfc  0x10, 0x0, 0x0   
0023b8   8040     bsf     0x40, 0x0, 0x0   
0023ba   8040     bsf     0x40, 0x0, 0x0   
0023bc   0201     mulwf   0x01, 0x0        
0023be   0104     movlb   0x4              	DB	0x04, 0x01, 0x02, 0x04, 0x08, 0x20, 0x01, 0x02, 0x04, 0x01, 0x02, 0x04
0023c0   0402     decf    0x02, 0x0, 0x0   
0023c2   2008     addwfc  0x08, 0x0, 0x0   
0023c4   0201     mulwf   0x01, 0x0        
0023c6   0104     movlb   0x4              
0023c8   0402     decf    0x02, 0x0, 0x0   
0023ca   1008     iorwf   0x08, 0x0, 0x0   	DB	0x08, 0x10, 0x20, 0x40, 0x80, 0x10
0023cc   4020     rrncf   0x20, 0x0, 0x0   
0023ce   1080     iorwf   0x80, 0x0, 0x0   
                                           ; ; Starting pCode block for Ival
                                           _port:
0023d0   0101     movlb   0x1              	DB	0x01, 0x01, 0x01, 0x01, 0x01, 0x01, 0x01, 0x01, 0x02, 0x02, 0x02, 0x02
0023d2   0101     movlb   0x1              
0023d4   0101     movlb   0x1              
0023d6   0101     movlb   0x1              
0023d8   0202     mulwf   0x02, 0x0        
0023da   0202     mulwf   0x02, 0x0        
0023dc   0002     dw      0x0002           	DB	0x02, 0x00, 0x00, 0x00, 0x00, 0x00, 0x04, 0x04, 0x04, 0x03, 0x03, 0x03
0023de   0000     nop                      
0023e0   0000     nop                      
0023e2   0404     decf    0x04, 0x0, 0x0   
0023e4   0304     mulwf   0x04, 0x1        
0023e6   0303     mulwf   0x03, 0x1        
0023e8   0303     mulwf   0x03, 0x1        	DB	0x03, 0x03, 0x03, 0x03, 0x03, 0x00
0023ea   0303     mulwf   0x03, 0x1        
0023ec   0003     sleep                    
                                           ; ; Starting pCode block for Ival
                                           _cpudiv:
0023ee   0302     mulwf   0x02, 0x1        	DB	0x02, 0x03, 0x04, 0x06
0023f0   0604     decf    0x04, 0x1, 0x0   
                                           ; ; Starting pCode block for Ival
                                           _cpudiv_xtal:
0023f2   0201     mulwf   0x01, 0x0        	DB	0x01, 0x02, 0x03, 0x04
0023f4   0403     decf    0x03, 0x0, 0x0   
                                           ; ; Starting pCode block for Ival
                                           _ircf:
0023f6   7a12     btg     0x12, 0x5, 0x0   	DB	0x12, 0x7a, 0x00, 0x00, 0x48, 0xe8, 0x01, 0x00, 0x90, 0xd0, 0x03, 0x00
0023f8   0000     nop                      
0023fa   e848     dw      0xe848           
0023fc   0001     halt                     
0023fe   d090     bra     0x002520         
002400   0003     sleep                    
002402   a120     btfss   0x20, 0x0, 0x1   	DB	0x20, 0xa1, 0x07, 0x00, 0x40, 0x42, 0x0f, 0x00, 0x80, 0x84, 0x1e, 0x00
002404   0007     daw                      
002406   4240     rrncf   0x40, 0x1, 0x0   
002408   000f     tblwt+*                  
00240a   8480     bsf     0x80, 0x2, 0x0   
00240c   001e     dw      0x001e           
00240e   0900     iorlw   0x00             	DB	0x00, 0x09, 0x3d, 0x00, 0x00, 0x12, 0x7a, 0x00
002410   003d     dw      0x003d           
002412   1200     iorwf   0x00, 0x1, 0x0   
002414   007a     dw      0x007a           
                                           ; ; Starting pCode block
                                           ___str_0:
002416   6e49     movwf   0x49, 0x0        	DB	0x49, 0x6e, 0x58, 0x6f, 0x75, 0x72, 0x63, 0x65, 0x00
002418   6f58     movwf   0x58, 0x1        
00241a   7275     btg     0x75, 0x1, 0x0   
00241c   6563     cpfsgt  0x63, 0x1        
00241e   0000     nop                      
                                           ; ; Starting pCode block
                                           ___str_1:
002420   7250     btg     0x50, 0x1, 0x0   	DB	0x50, 0x72, 0x75, 0x65, 0x62, 0x61, 0x2e, 0x2e, 0x2e, 0x2e, 0x2e, 0x00
002422   6575     cpfsgt  0x75, 0x1        
002424   6162     cpfslt  0x62, 0x1        
002426   2e2e     decfsz  0x2e, 0x1, 0x0   
002428   2e2e     decfsz  0x2e, 0x1, 0x0   
00242a   002e     dw      0x002e           
                                           
                                           
                                           ; Statistics:
                                           ; code size:	 5698 (0x1642) bytes ( 4.35%)
                                           ;           	 2849 (0x0b21) words
                                           ; udata size:	  415 (0x019f) bytes (23.16%)
                                           ; access size:	   14 (0x000e) bytes
                                           
                                           
                                           	end
